
bin/reflow.elf:     file format elf32-msp430

SYMBOL TABLE:
0000c020 l    d  .text	00000000 .text
0000d614 l    d  .rodata	00000000 .rodata
00000200 l    d  .bss	00000000 .bss
000002a6 l    d  .noinit	00000000 .noinit
0000c000 l    d  .vectors	00000000 .vectors
00000000 l    d  .debug_aranges	00000000 .debug_aranges
00000000 l    d  .debug_info	00000000 .debug_info
00000000 l    d  .debug_abbrev	00000000 .debug_abbrev
00000000 l    d  .debug_line	00000000 .debug_line
00000000 l    d  .debug_frame	00000000 .debug_frame
00000000 l    d  .debug_str	00000000 .debug_str
00000000 l    d  .debug_loc	00000000 .debug_loc
00000000 l    d  .debug_ranges	00000000 .debug_ranges
00000000 l    df *ABS*	00000000 main.c
0000c08c l       .text	00000000 __br_unexpected_
00000000 l    df *ABS*	00000000 misc.c
00000000 l    df *ABS*	00000000 uart.c
00000000 l    df *ABS*	00000000 adc.c
00000000 l    df *ABS*	00000000 PIDControl.c
00000000 l    df *ABS*	00000000 timer.c
00000000 l    df *ABS*	00000000 strcmp.c
00000000 l    df *ABS*	00000000 strcpy.c
00000000 l    df *ABS*	00000000 memset.c
00000000 l    df *ABS*	00000000 strlen.c
00000000 l    df *ABS*	00000000 strstr.c
00000000 l    df *ABS*	00000000 strcat.c
00000000 l    df *ABS*	00000000 atoi.c
00000000 l    df *ABS*	00000000 sprintf.c
0000cba6 l     F .text	00000022 append
00000286 l     O .bss	00000002 available_
00000284 l     O .bss	00000002 destination_
0000cbc8 l     F .text	0000003c call_vuprintf
00000000 l    df *ABS*	00000000 vuprintf.c
0000cc62 l     F .text	00000198 print_field
00000000 l    df *ABS*	00000000 strncmp.c
00000057 g       *ABS*	00000000 __BCSCTL1
0000005a g       *ABS*	00000000 __CACTL2
0000c9f8 g     F .text	00000014 strcpy
00000000 g       *ABS*	00000000 __data_size
00000166 g       *ABS*	00000000 __TA0CCTL2
0000c08c  w      .text	00000000 __isr_14
0000c788 g     F .text	00000080 ADC10_ISR
00000128 g       *ABS*	00000000 __FCTL1
00000192 g       *ABS*	00000000 __TA1CCR0
00000042 g       *ABS*	00000000 __P2SEL2
00000024 g       *ABS*	00000000 __P1IES
0000c808 g     F .text	0000001e PIDInit
00000069 g       *ABS*	00000000 __UCB0CTL1
0000cc3a g     F .text	00000016 vsprintf
0000c08c  w      .text	00000000 __isr_4
00000002 g       *ABS*	00000000 __IFG1
0000c68e g     F .text	0000003c ADCInit
00000060 g       *ABS*	00000000 __UCA0CTL0
0000c190 g     F .text	00000028 UartReadBuffer
0000cc20 g     F .text	0000001a snprintf
0000c8f6 g     F .text	00000014 TimerA0Init
00000000 g       .vectors	00000000 _efartext
0000c702 g     F .text	00000024 ADCReadTemp
0000d4c0 g     F .text	00000000 __udivhi3
00000176 g       *ABS*	00000000 __TA0CCR2
00000001 g       *ABS*	00000000 __IE2
0000002b g       *ABS*	00000000 __P2IFG
0000001a g       *ABS*	00000000 __P3DIR
0000c9a2 g     F .text	00000020 TA0_ISR
0000d7d2 g       *ABS*	00000000 _etext
000010f8 g       *ABS*	00000000 __CALDCO_16MHZ
000000a6 g       *ABS*	00000000 __bss_size
000010fd g       *ABS*	00000000 __CALBC1_8MHZ
0000c020  w      .text	00000000 __watchdog_support
0000c086  w      .text	00000000 __stop_progExec__
0000c182 g     F .text	0000000e UartReadByte
00000172 g       *ABS*	00000000 __TA0CCR0
0000002d g       *ABS*	00000000 __P2IE
00000288 g     O .bss	00000002 A3
0000c090 g     F .text	00000040 HardwareInit
0000c97e g     F .text	00000024 PWMSet
0000c08c  w      .text	00000000 __isr_11
00000160 g       *ABS*	00000000 __TA0CTL
0000d4e2 g     F .text	00000000 __udivsi3
00000025 g       *ABS*	00000000 __P1IE
0000006b g       *ABS*	00000000 __UCB0BR1
0000028a g     O .bss	00000002 tx_flag
0000028c g     O .bss	00000002 A0
0000cc50 g     F .text	00000012 vsnprintf
00000164 g       *ABS*	00000000 __TA0CCTL1
00000049 g       *ABS*	00000000 __ADC10DTC1
00000190 g       *ABS*	00000000 __TA1R
00000066 g       *ABS*	00000000 __UCA0RXBUF
00000061 g       *ABS*	00000000 __UCA0CTL1
00000170 g       *ABS*	00000000 __TA0R
0000d5d4 g       .text	00000000 __udivmoddi4
0000028e g     O .bss	0000000c PIDHandle0
00000180 g       *ABS*	00000000 __TA1CTL
0000006d g       *ABS*	00000000 __UCB0STAT
0000c788 g       .text	00000000 __isr_5
00000063 g       *ABS*	00000000 __UCA0BR1
0000d5a6 g     F .text	00000000 __umoddi3
0000d7d2 g       *ABS*	00000000 __data_load_start
0000c08c g       .text	00000000 __dtors_end
00000053 g       *ABS*	00000000 __BCSCTL3
000001bc g       *ABS*	00000000 __ADC10SA
0000029a g     O .bss	00000002 A5
0000d580 g     F .text	00000000 __udivdi3
00000065 g       *ABS*	00000000 __UCA0STAT
0000c08c  w      .text	00000000 __isr_2
0000c9c2 g       .text	00000000 __mulhi3
0000012c g       *ABS*	00000000 __FCTL3
0000c08c  w      .text	00000000 __isr_10
0000002e g       *ABS*	00000000 __P2SEL
000010f9 g       *ABS*	00000000 __CALBC1_16MHZ
0000012e g       *ABS*	00000000 __TA0IV
00000023 g       *ABS*	00000000 __P1IFG
000010fb g       *ABS*	00000000 __CALBC1_12MHZ
00000182 g       *ABS*	00000000 __TA1CCTL0
0000004a g       *ABS*	00000000 __ADC10AE0
0000011a g       *ABS*	00000000 __UCB0I2CSA
00000056 g       *ABS*	00000000 __DCOCTL
00000003 g       *ABS*	00000000 __IFG2
000002a6 g     O .noinit	00000002 __wdt_clear_value
0000001b g       *ABS*	00000000 __P3SEL
0000c29c g       .text	00000000 __isr_7
0000c000 g     O .vectors	00000020 __ivtbl_16
0000006c g       *ABS*	00000000 __UCB0I2CIE
0000cb02 g     F .text	0000001a strcat
0000006a g       *ABS*	00000000 __UCB0BR0
0000d518 g     F .text	00000000 __umodsi3
00000028 g       *ABS*	00000000 __P2IN
00000244 g     O .bss	00000040 UWriteBuffer
00000118 g       *ABS*	00000000 __UCB0I2COA
000001b4 g       *ABS*	00000000 __ADC10MEM
0000005b g       *ABS*	00000000 __CAPD
0000c10c g     F .text	00000066 UartInit
0000d4da g     F .text	00000000 __umodhi3
0000c08c  w      .text	00000000 __isr_0
00000202 g     O .bss	00000002 i
00000029 g       *ABS*	00000000 __P2OUT
0000012a g       *ABS*	00000000 __FCTL2
00000064 g       *ABS*	00000000 __UCA0MCTL
00000043 g       *ABS*	00000000 __P3SEL2
0000c048  w      .text	00000000 __do_clear_bss
00000021 g       *ABS*	00000000 __P1OUT
0000002c g       *ABS*	00000000 __P2IES
00000026 g       *ABS*	00000000 __P1SEL
0000caac g     F .text	00000056 strstr
0000d498 g     F .text	00000028 strncmp
0000d4e2 g       .text	00000000 __ext_udivmod32
00000027 g       *ABS*	00000000 __P1REN
0000d612  w      .text	00000000 _unexpected_
0000c08c  w      .text	00000000 __isr_8
0000011e g       *ABS*	00000000 __TA1IV
0000c08c  w      .text	00000000 __isr_3
0000029c g     O .bss	00000002 A4
0000cdfa g     F .text	0000069e vuprintf
0000c836 g     F .text	000000b4 CalculatePID
000010fc g       *ABS*	00000000 __CALDCO_8MHZ
0000d4c0 g       .text	00000000 __ext_udivmod16
0000c020  w      .text	00000000 _reset_vector__
0000c08c g       .text	00000000 __ctors_start
0000d522 g       .text	00000000 __xabi_udivmod64
0000c08c  w      .text	00000000 __isr_12
000010fa g       *ABS*	00000000 __CALDCO_12MHZ
00000018 g       *ABS*	00000000 __P3IN
0000c030  w      .text	00000000 __do_copy_data
00000162 g       *ABS*	00000000 __TA0CCTL0
00000200 g       .bss	00000000 __bss_start
0000ca0c g     F .text	0000006a memset
0000c826 g     F .text	00000010 SetPIDTuning
0000c05e g     F .text	00000028 main
0000c08c  w      .text	00000000 __isr_13
0000c1b8 g     F .text	000000e4 UartWriteBuffer
0000c020 g       .vectors	00000000 _vectors_end
0000c9da g     F .text	0000001e strcmp
0000002a g       *ABS*	00000000 __P2DIR
00000174 g       *ABS*	00000000 __TA0CCR1
0000c6ca g     F .text	00000038 ADCReadChannel
0000c0fa g     F .text	00000012 delay
00000186 g       *ABS*	00000000 __TA1CCTL2
00000068 g       *ABS*	00000000 __UCB0CTL0
0000002f g       *ABS*	00000000 __P2REN
0000cc04 g     F .text	0000001c sprintf
0000c0d0 g     F .text	0000002a SysInit
0000006e g       *ABS*	00000000 __UCB0RXBUF
000001b0 g       *ABS*	00000000 __ADC10CTL0
0000c9a2 g       .text	00000000 __isr_9
0000005e g       *ABS*	00000000 __UCA0IRTCTL
000010fe g       *ABS*	00000000 __CALDCO_1MHZ
00000184 g       *ABS*	00000000 __TA1CCTL1
00000067 g       *ABS*	00000000 __UCA0TXBUF
0000c02c  w      .text	00000000 __init_stack
0000005d g       *ABS*	00000000 __UCA0ABCTL
0000029e g     O .bss	00000001 tx_char
00000019 g       *ABS*	00000000 __P3OUT
00000196 g       *ABS*	00000000 __TA1CCR2
0000c08c g       .text	00000000 __dtors_start
0000c08c  w      .text	00000000 __isr_6
0000c08c g       .text	00000000 __ctors_end
00000204 g     O .bss	00000040 UReadBuffer
00000194 g       *ABS*	00000000 __TA1CCR1
00000062 g       *ABS*	00000000 __UCA0BR0
00000400 g       *ABS*	00000000 __stack
0000029f g     O .bss	00000001 currentChannel
0000c08c  w      .text	00000000 __isr_1
000002a0 g     O .bss	00000001 SeqDone
00000200 g       .rodata	00000000 _edata
0000c8ea g     F .text	00000008 PIDSetPoint
000002a8 g       *ABS*	00000000 _end
00000048 g       *ABS*	00000000 __ADC10DTC0
0000c90a g     F .text	00000038 TimerA1Init
0000c8f2 g     F .text	00000004 AutoCal
000001b2 g       *ABS*	00000000 __ADC10CTL1
0000c29c g     F .text	000003f2 USCI0RX_ISR
00000058 g       *ABS*	00000000 __BCSCTL2
0000c086  w      .text	00000000 _endless_loop__
0000cb1c g     F .text	0000008a atoi
00000041 g       *ABS*	00000000 __P1SEL2
00000022 g       *ABS*	00000000 __P1DIR
0000005f g       *ABS*	00000000 __UCA0IRRCTL
00000010 g       *ABS*	00000000 __P3REN
0000006f g       *ABS*	00000000 __UCB0TXBUF
0000ca76 g     F .text	00000036 strlen
000010ff g       *ABS*	00000000 __CALBC1_1MHZ
0000c726 g     F .text	00000062 ADCStart
0000c030  w      .text	00000000 __low_level_init
000002a2 g     O .bss	00000002 rx_flag
0000c942 g     F .text	0000003c PWMUpdate
00000200 g       .rodata	00000000 __data_start
00000120 g       *ABS*	00000000 __WDTCTL
00000000 g       *ABS*	00000000 __IE1
00000059 g       *ABS*	00000000 __CACTL1
00000020 g       *ABS*	00000000 __P1IN
000002a4 g     O .bss	00000001 rx_char
00000200 g     O .bss	00000002 recCounter
0000c172 g     F .text	00000010 UartWriteByte



Disassembly of section .text:

0000c020 <__watchdog_support>:
    c020:	55 42 20 01 	mov.b	&0x0120,r5	
    c024:	35 d0 08 5a 	bis	#23048,	r5	;#0x5a08
    c028:	82 45 a6 02 	mov	r5,	&0x02a6	

0000c02c <__init_stack>:
    c02c:	31 40 00 04 	mov	#1024,	r1	;#0x0400

0000c030 <__do_copy_data>:
    c030:	3f 40 00 00 	mov	#0,	r15	;#0x0000
    c034:	0f 93       	tst	r15		
    c036:	08 24       	jz	$+18     	;abs 0xc048
    c038:	92 42 a6 02 	mov	&0x02a6,&0x0120	
    c03c:	20 01 
    c03e:	2f 83       	decd	r15		
    c040:	9f 4f d2 d7 	mov	-10286(r15),512(r15);0xd7d2(r15), 0x0200(r15)
    c044:	00 02 
    c046:	f8 23       	jnz	$-14     	;abs 0xc038

0000c048 <__do_clear_bss>:
    c048:	3f 40 a6 00 	mov	#166,	r15	;#0x00a6
    c04c:	0f 93       	tst	r15		
    c04e:	07 24       	jz	$+16     	;abs 0xc05e
    c050:	92 42 a6 02 	mov	&0x02a6,&0x0120	
    c054:	20 01 
    c056:	1f 83       	dec	r15		
    c058:	cf 43 00 02 	mov.b	#0,	512(r15);r3 As==00, 0x0200(r15)
    c05c:	f9 23       	jnz	$-12     	;abs 0xc050

0000c05e <main>:
    c05e:	b0 12 90 c0 	call	#0xc090	
    c062:	3f 40 8e 02 	mov	#654,	r15	;#0x028e
    c066:	b0 12 08 c8 	call	#0xc808	
    c06a:	0c 43       	clr	r12		
    c06c:	1d 43       	mov	#1,	r13	;r3 As==01
    c06e:	2e 43       	mov	#2,	r14	;r3 As==10
    c070:	3f 40 8e 02 	mov	#654,	r15	;#0x028e
    c074:	b0 12 26 c8 	call	#0xc826	
    c078:	3e 40 96 00 	mov	#150,	r14	;#0x0096
    c07c:	3f 40 8e 02 	mov	#654,	r15	;#0x028e
    c080:	b0 12 ea c8 	call	#0xc8ea	
    c084:	ff 3f       	jmp	$+0      	;abs 0xc084

0000c086 <__stop_progExec__>:
    c086:	32 d0 f0 00 	bis	#240,	r2	;#0x00f0
    c08a:	fd 3f       	jmp	$-4      	;abs 0xc086

0000c08c <__ctors_end>:
    c08c:	30 40 12 d6 	br	#0xd612	

0000c090 <HardwareInit>:
    c090:	b2 40 80 5a 	mov	#23168,	&0x0120	;#0x5a80
    c094:	20 01 
    c096:	c2 43 56 00 	mov.b	#0,	&0x0056	;r3 As==00
    c09a:	5f 42 f9 10 	mov.b	&0x10f9,r15	
    c09e:	7f f0 cf ff 	and.b	#-49,	r15	;#0xffcf
    c0a2:	c2 4f 57 00 	mov.b	r15,	&0x0057	
    c0a6:	d2 42 f8 10 	mov.b	&0x10f8,&0x0056	
    c0aa:	56 00 
    c0ac:	e2 42 58 00 	mov.b	#4,	&0x0058	;r2 As==10
    c0b0:	f2 40 20 00 	mov.b	#32,	&0x0053	;#0x0020
    c0b4:	53 00 
    c0b6:	b0 12 0c c1 	call	#0xc10c	
    c0ba:	b0 12 8e c6 	call	#0xc68e	
    c0be:	3f 40 78 00 	mov	#120,	r15	;#0x0078
    c0c2:	b0 12 f6 c8 	call	#0xc8f6	
    c0c6:	b0 12 0a c9 	call	#0xc90a	
    c0ca:	32 d2       	eint			
    c0cc:	0f 43       	clr	r15		
    c0ce:	30 41       	ret			

0000c0d0 <SysInit>:
    c0d0:	b2 40 80 5a 	mov	#23168,	&0x0120	;#0x5a80
    c0d4:	20 01 
    c0d6:	c2 43 56 00 	mov.b	#0,	&0x0056	;r3 As==00
    c0da:	5f 42 f9 10 	mov.b	&0x10f9,r15	
    c0de:	7f f0 cf ff 	and.b	#-49,	r15	;#0xffcf
    c0e2:	c2 4f 57 00 	mov.b	r15,	&0x0057	
    c0e6:	d2 42 f8 10 	mov.b	&0x10f8,&0x0056	
    c0ea:	56 00 
    c0ec:	e2 42 58 00 	mov.b	#4,	&0x0058	;r2 As==10
    c0f0:	f2 40 20 00 	mov.b	#32,	&0x0053	;#0x0020
    c0f4:	53 00 
    c0f6:	0f 43       	clr	r15		
    c0f8:	30 41       	ret			

0000c0fa <delay>:
    c0fa:	0f 93       	tst	r15		
    c0fc:	06 24       	jz	$+14     	;abs 0xc10a
    c0fe:	0e 43       	clr	r14		
    c100:	03 43       	nop			
    c102:	03 43       	nop			
    c104:	1e 53       	inc	r14		
    c106:	0e 9f       	cmp	r15,	r14	
    c108:	fb 23       	jnz	$-8      	;abs 0xc100
    c10a:	30 41       	ret			

0000c10c <UartInit>:
    c10c:	f2 40 06 00 	mov.b	#6,	&0x0026	;#0x0006
    c110:	26 00 
    c112:	f2 40 06 00 	mov.b	#6,	&0x0041	;#0x0006
    c116:	41 00 
    c118:	d2 43 22 00 	mov.b	#1,	&0x0022	;r3 As==01
    c11c:	c2 43 21 00 	mov.b	#0,	&0x0021	;r3 As==00
    c120:	d2 43 61 00 	mov.b	#1,	&0x0061	;r3 As==01
    c124:	c2 43 60 00 	mov.b	#0,	&0x0060	;r3 As==00
    c128:	f2 40 81 ff 	mov.b	#-127,	&0x0061	;#0xff81
    c12c:	61 00 
    c12e:	e2 43 62 00 	mov.b	#2,	&0x0062	;r3 As==10
    c132:	c2 43 63 00 	mov.b	#0,	&0x0063	;r3 As==00
    c136:	f2 40 17 00 	mov.b	#23,	&0x0064	;#0x0017
    c13a:	64 00 
    c13c:	f2 f0 fe ff 	and.b	#-2,	&0x0061	;#0xfffe
    c140:	61 00 
    c142:	d2 43 01 00 	mov.b	#1,	&0x0001	;r3 As==01
    c146:	82 43 a2 02 	mov	#0,	&0x02a2	;r3 As==00
    c14a:	3d 40 20 00 	mov	#32,	r13	;#0x0020
    c14e:	0e 43       	clr	r14		
    c150:	3f 40 44 02 	mov	#580,	r15	;#0x0244
    c154:	b0 12 0c ca 	call	#0xca0c	
    c158:	3d 40 20 00 	mov	#32,	r13	;#0x0020
    c15c:	0e 43       	clr	r14		
    c15e:	3f 40 04 02 	mov	#516,	r15	;#0x0204
    c162:	b0 12 0c ca 	call	#0xca0c	
    c166:	82 43 02 02 	mov	#0,	&0x0202	;r3 As==00
    c16a:	82 43 00 02 	mov	#0,	&0x0200	;r3 As==00
    c16e:	0f 43       	clr	r15		
    c170:	30 41       	ret			

0000c172 <UartWriteByte>:
    c172:	5e 42 65 00 	mov.b	&0x0065,r14	
    c176:	1e f3       	and	#1,	r14	;r3 As==01
    c178:	fc 23       	jnz	$-6      	;abs 0xc172
    c17a:	c2 4f 67 00 	mov.b	r15,	&0x0067	
    c17e:	0f 43       	clr	r15		
    c180:	30 41       	ret			

0000c182 <UartReadByte>:
    c182:	5f 42 03 00 	mov.b	&0x0003,r15	
    c186:	1f f3       	and	#1,	r15	;r3 As==01
    c188:	fc 27       	jz	$-6      	;abs 0xc182
    c18a:	5f 42 66 00 	mov.b	&0x0066,r15	
    c18e:	30 41       	ret			

0000c190 <UartReadBuffer>:
    c190:	0b 12       	push	r11		
    c192:	1e 93       	cmp	#1,	r14	;r3 As==01
    c194:	0e 38       	jl	$+30     	;abs 0xc1b2
    c196:	0c 43       	clr	r12		
    c198:	5d 42 03 00 	mov.b	&0x0003,r13	
    c19c:	1d f3       	and	#1,	r13	;r3 As==01
    c19e:	fc 27       	jz	$-6      	;abs 0xc198
    c1a0:	5b 42 66 00 	mov.b	&0x0066,r11	
    c1a4:	0d 4f       	mov	r15,	r13	
    c1a6:	0d 5c       	add	r12,	r13	
    c1a8:	cd 4b 00 00 	mov.b	r11,	0(r13)	;0x0000(r13)
    c1ac:	1c 53       	inc	r12		
    c1ae:	0c 9e       	cmp	r14,	r12	
    c1b0:	f3 23       	jnz	$-24     	;abs 0xc198
    c1b2:	0f 43       	clr	r15		
    c1b4:	3b 41       	pop	r11		
    c1b6:	30 41       	ret			

0000c1b8 <UartWriteBuffer>:
    c1b8:	0b 12       	push	r11		
    c1ba:	0a 12       	push	r10		
    c1bc:	31 50 b2 ff 	add	#-78,	r1	;#0xffb2
    c1c0:	0a 4f       	mov	r15,	r10	
    c1c2:	4b 4e       	mov.b	r14,	r11	
    c1c4:	b1 40 0d 0a 	mov	#2573,	0(r1)	;#0x0a0d, 0x0000(r1)
    c1c8:	00 00 
    c1ca:	c1 43 02 00 	mov.b	#0,	2(r1)	;r3 As==00, 0x0002(r1)
    c1ce:	f1 40 0d 00 	mov.b	#13,	3(r1)	;#0x000d, 0x0003(r1)
    c1d2:	03 00 
    c1d4:	f1 40 0a 00 	mov.b	#10,	4(r1)	;#0x000a, 0x0004(r1)
    c1d8:	04 00 
    c1da:	f1 40 25 00 	mov.b	#37,	5(r1)	;#0x0025, 0x0005(r1)
    c1de:	05 00 
    c1e0:	f1 40 20 00 	mov.b	#32,	6(r1)	;#0x0020, 0x0006(r1)
    c1e4:	06 00 
    c1e6:	c1 43 07 00 	mov.b	#0,	7(r1)	;r3 As==00, 0x0007(r1)
    c1ea:	3d 40 46 00 	mov	#70,	r13	;#0x0046
    c1ee:	0e 43       	clr	r14		
    c1f0:	0f 41       	mov	r1,	r15	
    c1f2:	3f 52       	add	#8,	r15	;r2 As==11
    c1f4:	b0 12 0c ca 	call	#0xca0c	
    c1f8:	4b 93       	tst.b	r11		
    c1fa:	25 24       	jz	$+76     	;abs 0xc246
    c1fc:	5b 93       	cmp.b	#1,	r11	;r3 As==01
    c1fe:	40 24       	jz	$+130    	;abs 0xc280
    c200:	6b 93       	cmp.b	#2,	r11	;r3 As==10
    c202:	46 24       	jz	$+142    	;abs 0xc290
    c204:	7b 90 03 00 	cmp.b	#3,	r11	;#0x0003
    c208:	30 24       	jz	$+98     	;abs 0xc26a
    c20a:	0b 43       	clr	r11		
    c20c:	0f 41       	mov	r1,	r15	
    c20e:	3f 52       	add	#8,	r15	;r2 As==11
    c210:	b0 12 76 ca 	call	#0xca76	
    c214:	0b 9f       	cmp	r15,	r11	
    c216:	11 2c       	jc	$+36     	;abs 0xc23a
    c218:	3f 42       	mov	#8,	r15	;r2 As==11
    c21a:	0f 51       	add	r1,	r15	
    c21c:	0f 5b       	add	r11,	r15	
    c21e:	6e 4f       	mov.b	@r15,	r14	
    c220:	5f 42 65 00 	mov.b	&0x0065,r15	
    c224:	1f f3       	and	#1,	r15	;r3 As==01
    c226:	fc 23       	jnz	$-6      	;abs 0xc220
    c228:	c2 4e 67 00 	mov.b	r14,	&0x0067	
    c22c:	1b 53       	inc	r11		
    c22e:	0f 41       	mov	r1,	r15	
    c230:	3f 52       	add	#8,	r15	;r2 As==11
    c232:	b0 12 76 ca 	call	#0xca76	
    c236:	0b 9f       	cmp	r15,	r11	
    c238:	ef 2b       	jnc	$-32     	;abs 0xc218
    c23a:	0f 43       	clr	r15		
    c23c:	31 50 4e 00 	add	#78,	r1	;#0x004e
    c240:	3a 41       	pop	r10		
    c242:	3b 41       	pop	r11		
    c244:	30 41       	ret			
    c246:	0e 41       	mov	r1,	r14	
    c248:	0f 41       	mov	r1,	r15	
    c24a:	3f 52       	add	#8,	r15	;r2 As==11
    c24c:	b0 12 f8 c9 	call	#0xc9f8	
    c250:	0e 4a       	mov	r10,	r14	
    c252:	0f 41       	mov	r1,	r15	
    c254:	3f 52       	add	#8,	r15	;r2 As==11
    c256:	b0 12 02 cb 	call	#0xcb02	
    c25a:	0e 41       	mov	r1,	r14	
    c25c:	3e 50 03 00 	add	#3,	r14	;#0x0003
    c260:	0f 41       	mov	r1,	r15	
    c262:	3f 52       	add	#8,	r15	;r2 As==11
    c264:	b0 12 02 cb 	call	#0xcb02	
    c268:	d0 3f       	jmp	$-94     	;abs 0xc20a
    c26a:	0e 41       	mov	r1,	r14	
    c26c:	0f 41       	mov	r1,	r15	
    c26e:	3f 52       	add	#8,	r15	;r2 As==11
    c270:	b0 12 f8 c9 	call	#0xc9f8	
    c274:	0e 4a       	mov	r10,	r14	
    c276:	0f 41       	mov	r1,	r15	
    c278:	3f 52       	add	#8,	r15	;r2 As==11
    c27a:	b0 12 02 cb 	call	#0xcb02	
    c27e:	c5 3f       	jmp	$-116    	;abs 0xc20a
    c280:	0e 41       	mov	r1,	r14	
    c282:	3e 50 03 00 	add	#3,	r14	;#0x0003
    c286:	0f 41       	mov	r1,	r15	
    c288:	3f 52       	add	#8,	r15	;r2 As==11
    c28a:	b0 12 f8 c9 	call	#0xc9f8	
    c28e:	bd 3f       	jmp	$-132    	;abs 0xc20a
    c290:	0e 4a       	mov	r10,	r14	
    c292:	0f 41       	mov	r1,	r15	
    c294:	3f 52       	add	#8,	r15	;r2 As==11
    c296:	b0 12 f8 c9 	call	#0xc9f8	
    c29a:	b7 3f       	jmp	$-144    	;abs 0xc20a

0000c29c <USCI0RX_ISR>:
    c29c:	0f 12       	push	r15		
    c29e:	0e 12       	push	r14		
    c2a0:	0d 12       	push	r13		
    c2a2:	0c 12       	push	r12		
    c2a4:	0b 12       	push	r11		
    c2a6:	31 50 f6 ff 	add	#-10,	r1	;#0xfff6
    c2aa:	5b 42 66 00 	mov.b	&0x0066,r11	
    c2ae:	3d 40 40 00 	mov	#64,	r13	;#0x0040
    c2b2:	0e 43       	clr	r14		
    c2b4:	3f 40 44 02 	mov	#580,	r15	;#0x0244
    c2b8:	b0 12 0c ca 	call	#0xca0c	
    c2bc:	7b 90 0d 00 	cmp.b	#13,	r11	;#0x000d
    c2c0:	37 24       	jz	$+112    	;abs 0xc330
    c2c2:	1f 42 00 02 	mov	&0x0200,r15	
    c2c6:	7b 92       	cmp.b	#8,	r11	;r2 As==11
    c2c8:	16 24       	jz	$+46     	;abs 0xc2f6
    c2ca:	cf 4b 04 02 	mov.b	r11,	516(r15);0x0204(r15)
    c2ce:	c2 4b 44 02 	mov.b	r11,	&0x0244	
    c2d2:	c2 43 45 02 	mov.b	#0,	&0x0245	;r3 As==00
    c2d6:	1f 53       	inc	r15		
    c2d8:	82 4f 00 02 	mov	r15,	&0x0200	
    c2dc:	6e 43       	mov.b	#2,	r14	;r3 As==10
    c2de:	3f 40 44 02 	mov	#580,	r15	;#0x0244
    c2e2:	b0 12 b8 c1 	call	#0xc1b8	
    c2e6:	31 50 0a 00 	add	#10,	r1	;#0x000a
    c2ea:	3b 41       	pop	r11		
    c2ec:	3c 41       	pop	r12		
    c2ee:	3d 41       	pop	r13		
    c2f0:	3e 41       	pop	r14		
    c2f2:	3f 41       	pop	r15		
    c2f4:	00 13       	reti			
    c2f6:	0f 93       	tst	r15		
    c2f8:	f6 27       	jz	$-18     	;abs 0xc2e6
    c2fa:	3f 53       	add	#-1,	r15	;r3 As==11
    c2fc:	82 4f 00 02 	mov	r15,	&0x0200	
    c300:	cf 43 04 02 	mov.b	#0,	516(r15);r3 As==00, 0x0204(r15)
    c304:	f2 42 44 02 	mov.b	#8,	&0x0244	;r2 As==11
    c308:	f2 40 20 00 	mov.b	#32,	&0x0245	;#0x0020
    c30c:	45 02 
    c30e:	f2 42 46 02 	mov.b	#8,	&0x0246	;r2 As==11
    c312:	c2 43 47 02 	mov.b	#0,	&0x0247	;r3 As==00
    c316:	6e 43       	mov.b	#2,	r14	;r3 As==10
    c318:	3f 40 44 02 	mov	#580,	r15	;#0x0244
    c31c:	b0 12 b8 c1 	call	#0xc1b8	
    c320:	31 50 0a 00 	add	#10,	r1	;#0x000a
    c324:	3b 41       	pop	r11		
    c326:	3c 41       	pop	r12		
    c328:	3d 41       	pop	r13		
    c32a:	3e 41       	pop	r14		
    c32c:	3f 41       	pop	r15		
    c32e:	00 13       	reti			
    c330:	3e 40 14 d6 	mov	#-10732,r14	;#0xd614
    c334:	3f 40 04 02 	mov	#516,	r15	;#0x0204
    c338:	b0 12 da c9 	call	#0xc9da	
    c33c:	0f 93       	tst	r15		
    c33e:	34 20       	jnz	$+106    	;abs 0xc3a8
    c340:	7e 40 03 00 	mov.b	#3,	r14	;#0x0003
    c344:	3f 40 17 d6 	mov	#-10729,r15	;#0xd617
    c348:	b0 12 b8 c1 	call	#0xc1b8	
    c34c:	7e 40 03 00 	mov.b	#3,	r14	;#0x0003
    c350:	3f 40 31 d6 	mov	#-10703,r15	;#0xd631
    c354:	b0 12 b8 c1 	call	#0xc1b8	
    c358:	7e 40 03 00 	mov.b	#3,	r14	;#0x0003
    c35c:	3f 40 4a d6 	mov	#-10678,r15	;#0xd64a
    c360:	b0 12 b8 c1 	call	#0xc1b8	
    c364:	7e 40 03 00 	mov.b	#3,	r14	;#0x0003
    c368:	3f 40 59 d6 	mov	#-10663,r15	;#0xd659
    c36c:	b0 12 b8 c1 	call	#0xc1b8	
    c370:	7e 40 03 00 	mov.b	#3,	r14	;#0x0003
    c374:	3f 40 6c d6 	mov	#-10644,r15	;#0xd66c
    c378:	b0 12 b8 c1 	call	#0xc1b8	
    c37c:	4e 43       	clr.b	r14		
    c37e:	3f 40 17 d6 	mov	#-10729,r15	;#0xd617
    c382:	b0 12 b8 c1 	call	#0xc1b8	
    c386:	3d 40 40 00 	mov	#64,	r13	;#0x0040
    c38a:	0e 43       	clr	r14		
    c38c:	3f 40 04 02 	mov	#516,	r15	;#0x0204
    c390:	b0 12 0c ca 	call	#0xca0c	
    c394:	82 43 00 02 	mov	#0,	&0x0200	;r3 As==00
    c398:	31 50 0a 00 	add	#10,	r1	;#0x000a
    c39c:	3b 41       	pop	r11		
    c39e:	3c 41       	pop	r12		
    c3a0:	3d 41       	pop	r13		
    c3a2:	3e 41       	pop	r14		
    c3a4:	3f 41       	pop	r15		
    c3a6:	00 13       	reti			
    c3a8:	3e 40 84 d6 	mov	#-10620,r14	;#0xd684
    c3ac:	3f 40 04 02 	mov	#516,	r15	;#0x0204
    c3b0:	b0 12 da c9 	call	#0xc9da	
    c3b4:	0f 93       	tst	r15		
    c3b6:	4d 24       	jz	$+156    	;abs 0xc452
    c3b8:	3e 40 52 d7 	mov	#-10414,r14	;#0xd752
    c3bc:	3f 40 04 02 	mov	#516,	r15	;#0x0204
    c3c0:	b0 12 ac ca 	call	#0xcaac	
    c3c4:	0f 93       	tst	r15		
    c3c6:	06 24       	jz	$+14     	;abs 0xc3d4
    c3c8:	3f 40 04 02 	mov	#516,	r15	;#0x0204
    c3cc:	b0 12 76 ca 	call	#0xca76	
    c3d0:	2f 93       	cmp	#2,	r15	;r3 As==10
    c3d2:	6f 24       	jz	$+224    	;abs 0xc4b2
    c3d4:	3e 40 6f d7 	mov	#-10385,r14	;#0xd76f
    c3d8:	3f 40 04 02 	mov	#516,	r15	;#0x0204
    c3dc:	b0 12 ac ca 	call	#0xcaac	
    c3e0:	0f 93       	tst	r15		
    c3e2:	06 24       	jz	$+14     	;abs 0xc3f0
    c3e4:	3f 40 04 02 	mov	#516,	r15	;#0x0204
    c3e8:	b0 12 76 ca 	call	#0xca76	
    c3ec:	2f 93       	cmp	#2,	r15	;r3 As==10
    c3ee:	75 24       	jz	$+236    	;abs 0xc4da
    c3f0:	3e 40 71 d7 	mov	#-10383,r14	;#0xd771
    c3f4:	3f 40 04 02 	mov	#516,	r15	;#0x0204
    c3f8:	b0 12 ac ca 	call	#0xcaac	
    c3fc:	0f 93       	tst	r15		
    c3fe:	06 24       	jz	$+14     	;abs 0xc40c
    c400:	3f 40 04 02 	mov	#516,	r15	;#0x0204
    c404:	b0 12 76 ca 	call	#0xca76	
    c408:	2f 93       	cmp	#2,	r15	;r3 As==10
    c40a:	9e 24       	jz	$+318    	;abs 0xc548
    c40c:	3e 40 8e d7 	mov	#-10354,r14	;#0xd78e
    c410:	3f 40 04 02 	mov	#516,	r15	;#0x0204
    c414:	b0 12 ac ca 	call	#0xcaac	
    c418:	0f 93       	tst	r15		
    c41a:	06 24       	jz	$+14     	;abs 0xc428
    c41c:	3f 40 04 02 	mov	#516,	r15	;#0x0204
    c420:	b0 12 76 ca 	call	#0xca76	
    c424:	2f 93       	cmp	#2,	r15	;r3 As==10
    c426:	a4 24       	jz	$+330    	;abs 0xc570
    c428:	3e 40 90 d7 	mov	#-10352,r14	;#0xd790
    c42c:	3f 40 04 02 	mov	#516,	r15	;#0x0204
    c430:	b0 12 ac ca 	call	#0xcaac	
    c434:	0f 93       	tst	r15		
    c436:	b0 24       	jz	$+354    	;abs 0xc598
    c438:	3f 40 04 02 	mov	#516,	r15	;#0x0204
    c43c:	b0 12 76 ca 	call	#0xca76	
    c440:	3f 92       	cmp	#8,	r15	;r2 As==11
    c442:	6c 24       	jz	$+218    	;abs 0xc51c
    c444:	6b 28       	jnc	$+216    	;abs 0xc51c
    c446:	4e 43       	clr.b	r14		
    c448:	3f 40 92 d7 	mov	#-10350,r15	;#0xd792
    c44c:	b0 12 b8 c1 	call	#0xc1b8	
    c450:	9a 3f       	jmp	$-202    	;abs 0xc386
    c452:	7e 40 03 00 	mov.b	#3,	r14	;#0x0003
    c456:	3f 40 89 d6 	mov	#-10615,r15	;#0xd689
    c45a:	b0 12 b8 c1 	call	#0xc1b8	
    c45e:	7e 40 03 00 	mov.b	#3,	r14	;#0x0003
    c462:	3f 40 a3 d6 	mov	#-10589,r15	;#0xd6a3
    c466:	b0 12 b8 c1 	call	#0xc1b8	
    c46a:	7e 40 03 00 	mov.b	#3,	r14	;#0x0003
    c46e:	3f 40 c2 d6 	mov	#-10558,r15	;#0xd6c2
    c472:	b0 12 b8 c1 	call	#0xc1b8	
    c476:	7e 40 03 00 	mov.b	#3,	r14	;#0x0003
    c47a:	3f 40 df d6 	mov	#-10529,r15	;#0xd6df
    c47e:	b0 12 b8 c1 	call	#0xc1b8	
    c482:	7e 40 03 00 	mov.b	#3,	r14	;#0x0003
    c486:	3f 40 fb d6 	mov	#-10501,r15	;#0xd6fb
    c48a:	b0 12 b8 c1 	call	#0xc1b8	
    c48e:	7e 40 03 00 	mov.b	#3,	r14	;#0x0003
    c492:	3f 40 17 d7 	mov	#-10473,r15	;#0xd717
    c496:	b0 12 b8 c1 	call	#0xc1b8	
    c49a:	7e 40 03 00 	mov.b	#3,	r14	;#0x0003
    c49e:	3f 40 3a d7 	mov	#-10438,r15	;#0xd73a
    c4a2:	b0 12 b8 c1 	call	#0xc1b8	
    c4a6:	4e 43       	clr.b	r14		
    c4a8:	3f 40 89 d6 	mov	#-10615,r15	;#0xd689
    c4ac:	b0 12 b8 c1 	call	#0xc1b8	
    c4b0:	6a 3f       	jmp	$-298    	;abs 0xc386
    c4b2:	5f 42 05 02 	mov.b	&0x0205,r15	
    c4b6:	7f 90 30 00 	cmp.b	#48,	r15	;#0x0030
    c4ba:	98 24       	jz	$+306    	;abs 0xc5ec
    c4bc:	7f 90 33 00 	cmp.b	#51,	r15	;#0x0033
    c4c0:	99 24       	jz	$+308    	;abs 0xc5f4
    c4c2:	7f 90 34 00 	cmp.b	#52,	r15	;#0x0034
    c4c6:	9f 24       	jz	$+320    	;abs 0xc606
    c4c8:	7f 90 35 00 	cmp.b	#53,	r15	;#0x0035
    c4cc:	80 24       	jz	$+258    	;abs 0xc5ce
    c4ce:	4e 43       	clr.b	r14		
    c4d0:	3f 40 59 d7 	mov	#-10407,r15	;#0xd759
    c4d4:	b0 12 b8 c1 	call	#0xc1b8	
    c4d8:	56 3f       	jmp	$-338    	;abs 0xc386
    c4da:	5f 42 05 02 	mov.b	&0x0205,r15	
    c4de:	7f 90 30 00 	cmp.b	#48,	r15	;#0x0030
    c4e2:	8d 24       	jz	$+284    	;abs 0xc5fe
    c4e4:	7f 90 33 00 	cmp.b	#51,	r15	;#0x0033
    c4e8:	a3 24       	jz	$+328    	;abs 0xc630
    c4ea:	7f 90 34 00 	cmp.b	#52,	r15	;#0x0034
    c4ee:	a7 24       	jz	$+336    	;abs 0xc63e
    c4f0:	7f 90 35 00 	cmp.b	#53,	r15	;#0x0035
    c4f4:	ec 23       	jnz	$-38     	;abs 0xc4ce
    c4f6:	7f 40 05 00 	mov.b	#5,	r15	;#0x0005
    c4fa:	b0 12 ca c6 	call	#0xc6ca	
    c4fe:	0f 12       	push	r15		
    c500:	30 12 54 d7 	push	#-10412	;#0xd754
    c504:	30 12 44 02 	push	#580		;#0x0244
    c508:	b0 12 04 cc 	call	#0xcc04	
    c50c:	31 50 06 00 	add	#6,	r1	;#0x0006
    c510:	4e 43       	clr.b	r14		
    c512:	3f 40 44 02 	mov	#580,	r15	;#0x0244
    c516:	b0 12 b8 c1 	call	#0xc1b8	
    c51a:	35 3f       	jmp	$-404    	;abs 0xc386
    c51c:	3e 40 07 02 	mov	#519,	r14	;#0x0207
    c520:	0f 41       	mov	r1,	r15	
    c522:	b0 12 f8 c9 	call	#0xc9f8	
    c526:	0f 41       	mov	r1,	r15	
    c528:	b0 12 1c cb 	call	#0xcb1c	
    c52c:	5e 42 05 02 	mov.b	&0x0205,r14	
    c530:	7e 90 31 00 	cmp.b	#49,	r14	;#0x0031
    c534:	73 24       	jz	$+232    	;abs 0xc61c
    c536:	7e 90 32 00 	cmp.b	#50,	r14	;#0x0032
    c53a:	4e 24       	jz	$+158    	;abs 0xc5d8
    c53c:	4e 43       	clr.b	r14		
    c53e:	3f 40 74 d7 	mov	#-10380,r15	;#0xd774
    c542:	b0 12 b8 c1 	call	#0xc1b8	
    c546:	1f 3f       	jmp	$-448    	;abs 0xc386
    c548:	5f 42 05 02 	mov.b	&0x0205,r15	
    c54c:	7f 90 31 00 	cmp.b	#49,	r15	;#0x0031
    c550:	74 24       	jz	$+234    	;abs 0xc63a
    c552:	7f 90 32 00 	cmp.b	#50,	r15	;#0x0032
    c556:	f2 23       	jnz	$-26     	;abs 0xc53c
    c558:	2e 43       	mov	#2,	r14	;r3 As==10
    c55a:	3f 40 c8 00 	mov	#200,	r15	;#0x00c8
    c55e:	b0 12 42 c9 	call	#0xc942	
    c562:	5e 43       	mov.b	#1,	r14	;r3 As==01
    c564:	3f 40 73 d7 	mov	#-10381,r15	;#0xd773
    c568:	b0 12 b8 c1 	call	#0xc1b8	
    c56c:	30 40 86 c3 	br	#0xc386	
    c570:	5f 42 05 02 	mov.b	&0x0205,r15	
    c574:	7f 90 31 00 	cmp.b	#49,	r15	;#0x0031
    c578:	66 24       	jz	$+206    	;abs 0xc646
    c57a:	7f 90 32 00 	cmp.b	#50,	r15	;#0x0032
    c57e:	de 23       	jnz	$-66     	;abs 0xc53c
    c580:	2e 43       	mov	#2,	r14	;r3 As==10
    c582:	3f 40 38 ff 	mov	#-200,	r15	;#0xff38
    c586:	b0 12 42 c9 	call	#0xc942	
    c58a:	5e 43       	mov.b	#1,	r14	;r3 As==01
    c58c:	3f 40 73 d7 	mov	#-10381,r15	;#0xd773
    c590:	b0 12 b8 c1 	call	#0xc1b8	
    c594:	30 40 86 c3 	br	#0xc386	
    c598:	3e 40 a4 d7 	mov	#-10332,r14	;#0xd7a4
    c59c:	3f 40 04 02 	mov	#516,	r15	;#0x0204
    c5a0:	b0 12 ac ca 	call	#0xcaac	
    c5a4:	0f 93       	tst	r15		
    c5a6:	06 24       	jz	$+14     	;abs 0xc5b4
    c5a8:	3f 40 04 02 	mov	#516,	r15	;#0x0204
    c5ac:	b0 12 76 ca 	call	#0xca76	
    c5b0:	2f 93       	cmp	#2,	r15	;r3 As==10
    c5b2:	4b 24       	jz	$+152    	;abs 0xc64a
    c5b4:	3f 40 04 02 	mov	#516,	r15	;#0x0204
    c5b8:	b0 12 76 ca 	call	#0xca76	
    c5bc:	0f 93       	tst	r15		
    c5be:	27 24       	jz	$+80     	;abs 0xc60e
    c5c0:	4e 43       	clr.b	r14		
    c5c2:	3f 40 ba d7 	mov	#-10310,r15	;#0xd7ba
    c5c6:	b0 12 b8 c1 	call	#0xc1b8	
    c5ca:	30 40 86 c3 	br	#0xc386	
    c5ce:	7f 40 05 00 	mov.b	#5,	r15	;#0x0005
    c5d2:	b0 12 02 c7 	call	#0xc702	
    c5d6:	93 3f       	jmp	$-216    	;abs 0xc4fe
    c5d8:	2e 43       	mov	#2,	r14	;r3 As==10
    c5da:	b0 12 7e c9 	call	#0xc97e	
    c5de:	5e 43       	mov.b	#1,	r14	;r3 As==01
    c5e0:	3f 40 73 d7 	mov	#-10381,r15	;#0xd773
    c5e4:	b0 12 b8 c1 	call	#0xc1b8	
    c5e8:	30 40 86 c3 	br	#0xc386	
    c5ec:	4f 43       	clr.b	r15		
    c5ee:	b0 12 02 c7 	call	#0xc702	
    c5f2:	85 3f       	jmp	$-244    	;abs 0xc4fe
    c5f4:	7f 40 03 00 	mov.b	#3,	r15	;#0x0003
    c5f8:	b0 12 02 c7 	call	#0xc702	
    c5fc:	80 3f       	jmp	$-254    	;abs 0xc4fe
    c5fe:	4f 43       	clr.b	r15		
    c600:	b0 12 ca c6 	call	#0xc6ca	
    c604:	7c 3f       	jmp	$-262    	;abs 0xc4fe
    c606:	6f 42       	mov.b	#4,	r15	;r2 As==10
    c608:	b0 12 02 c7 	call	#0xc702	
    c60c:	78 3f       	jmp	$-270    	;abs 0xc4fe
    c60e:	5e 43       	mov.b	#1,	r14	;r3 As==01
    c610:	3f 40 73 d7 	mov	#-10381,r15	;#0xd773
    c614:	b0 12 b8 c1 	call	#0xc1b8	
    c618:	30 40 86 c3 	br	#0xc386	
    c61c:	1e 43       	mov	#1,	r14	;r3 As==01
    c61e:	b0 12 7e c9 	call	#0xc97e	
    c622:	5e 43       	mov.b	#1,	r14	;r3 As==01
    c624:	3f 40 73 d7 	mov	#-10381,r15	;#0xd773
    c628:	b0 12 b8 c1 	call	#0xc1b8	
    c62c:	30 40 86 c3 	br	#0xc386	
    c630:	7f 40 03 00 	mov.b	#3,	r15	;#0x0003
    c634:	b0 12 ca c6 	call	#0xc6ca	
    c638:	62 3f       	jmp	$-314    	;abs 0xc4fe
    c63a:	1e 43       	mov	#1,	r14	;r3 As==01
    c63c:	8e 3f       	jmp	$-226    	;abs 0xc55a
    c63e:	6f 42       	mov.b	#4,	r15	;r2 As==10
    c640:	b0 12 ca c6 	call	#0xc6ca	
    c644:	5c 3f       	jmp	$-326    	;abs 0xc4fe
    c646:	1e 43       	mov	#1,	r14	;r3 As==01
    c648:	9c 3f       	jmp	$-198    	;abs 0xc582
    c64a:	5f 42 05 02 	mov.b	&0x0205,r15	
    c64e:	7f 90 30 00 	cmp.b	#48,	r15	;#0x0030
    c652:	0a 24       	jz	$+22     	;abs 0xc668
    c654:	7f 90 31 00 	cmp.b	#49,	r15	;#0x0031
    c658:	11 24       	jz	$+36     	;abs 0xc67c
    c65a:	4e 43       	clr.b	r14		
    c65c:	3f 40 a6 d7 	mov	#-10330,r15	;#0xd7a6
    c660:	b0 12 b8 c1 	call	#0xc1b8	
    c664:	30 40 86 c3 	br	#0xc386	
    c668:	f2 f0 fe ff 	and.b	#-2,	&0x0029	;#0xfffe
    c66c:	29 00 
    c66e:	5e 43       	mov.b	#1,	r14	;r3 As==01
    c670:	3f 40 73 d7 	mov	#-10381,r15	;#0xd773
    c674:	b0 12 b8 c1 	call	#0xc1b8	
    c678:	30 40 86 c3 	br	#0xc386	
    c67c:	d2 d3 29 00 	bis.b	#1,	&0x0029	;r3 As==01
    c680:	5e 43       	mov.b	#1,	r14	;r3 As==01
    c682:	3f 40 73 d7 	mov	#-10381,r15	;#0xd773
    c686:	b0 12 b8 c1 	call	#0xc1b8	
    c68a:	30 40 86 c3 	br	#0xc386	

0000c68e <ADCInit>:
    c68e:	82 43 b0 01 	mov	#0,	&0x01b0	;r3 As==00
    c692:	b2 40 18 18 	mov	#6168,	&0x01b0	;#0x1818
    c696:	b0 01 
    c698:	b2 40 f8 00 	mov	#248,	&0x01b2	;#0x00f8
    c69c:	b2 01 
    c69e:	c2 43 4a 00 	mov.b	#0,	&0x004a	;r3 As==00
    c6a2:	82 43 8c 02 	mov	#0,	&0x028c	;r3 As==00
    c6a6:	82 43 88 02 	mov	#0,	&0x0288	;r3 As==00
    c6aa:	82 43 9c 02 	mov	#0,	&0x029c	;r3 As==00
    c6ae:	82 43 9a 02 	mov	#0,	&0x029a	;r3 As==00
    c6b2:	c2 43 9f 02 	mov.b	#0,	&0x029f	;r3 As==00
    c6b6:	c2 43 a0 02 	mov.b	#0,	&0x02a0	;r3 As==00
    c6ba:	b2 f0 ff 0f 	and	#4095,	&0x01b2	;#0x0fff
    c6be:	b2 01 
    c6c0:	b2 d0 03 00 	bis	#3,	&0x01b0	;#0x0003
    c6c4:	b0 01 
    c6c6:	0f 43       	clr	r15		
    c6c8:	30 41       	ret			

0000c6ca <ADCReadChannel>:
    c6ca:	5e 42 a0 02 	mov.b	&0x02a0,r14	
    c6ce:	4e 93       	tst.b	r14		
    c6d0:	fc 27       	jz	$-6      	;abs 0xc6ca
    c6d2:	4f 93       	tst.b	r15		
    c6d4:	0d 24       	jz	$+28     	;abs 0xc6f0
    c6d6:	7f 90 03 00 	cmp.b	#3,	r15	;#0x0003
    c6da:	07 24       	jz	$+16     	;abs 0xc6ea
    c6dc:	6f 92       	cmp.b	#4,	r15	;r2 As==10
    c6de:	0b 24       	jz	$+24     	;abs 0xc6f6
    c6e0:	7f 90 05 00 	cmp.b	#5,	r15	;#0x0005
    c6e4:	0b 24       	jz	$+24     	;abs 0xc6fc
    c6e6:	3f 43       	mov	#-1,	r15	;r3 As==11
    c6e8:	30 41       	ret			
    c6ea:	1f 42 88 02 	mov	&0x0288,r15	
    c6ee:	30 41       	ret			
    c6f0:	1f 42 8c 02 	mov	&0x028c,r15	
    c6f4:	30 41       	ret			
    c6f6:	1f 42 9c 02 	mov	&0x029c,r15	
    c6fa:	30 41       	ret			
    c6fc:	1f 42 9a 02 	mov	&0x029a,r15	
    c700:	30 41       	ret			

0000c702 <ADCReadTemp>:
    c702:	b0 12 ca c6 	call	#0xc6ca	
    c706:	0f 5f       	rla	r15		
    c708:	0e 4f       	mov	r15,	r14	
    c70a:	0e 5e       	rla	r14		
    c70c:	0e 5e       	rla	r14		
    c70e:	0f 5e       	add	r14,	r15	
    c710:	12 c3       	clrc			
    c712:	0f 10       	rrc	r15		
    c714:	12 c3       	clrc			
    c716:	0f 10       	rrc	r15		
    c718:	12 c3       	clrc			
    c71a:	0f 10       	rrc	r15		
    c71c:	12 c3       	clrc			
    c71e:	0f 10       	rrc	r15		
    c720:	12 c3       	clrc			
    c722:	0f 10       	rrc	r15		
    c724:	30 41       	ret			

0000c726 <ADCStart>:
    c726:	4f 93       	tst.b	r15		
    c728:	0a 24       	jz	$+22     	;abs 0xc73e
    c72a:	7f 90 03 00 	cmp.b	#3,	r15	;#0x0003
    c72e:	0e 24       	jz	$+30     	;abs 0xc74c
    c730:	6f 92       	cmp.b	#4,	r15	;r2 As==10
    c732:	20 24       	jz	$+66     	;abs 0xc774
    c734:	7f 90 05 00 	cmp.b	#5,	r15	;#0x0005
    c738:	13 24       	jz	$+40     	;abs 0xc760
    c73a:	3f 43       	mov	#-1,	r15	;r3 As==11
    c73c:	30 41       	ret			
    c73e:	b2 f0 ff 0f 	and	#4095,	&0x01b2	;#0x0fff
    c742:	b2 01 
    c744:	b2 d0 03 00 	bis	#3,	&0x01b0	;#0x0003
    c748:	b0 01 
    c74a:	30 41       	ret			
    c74c:	b2 f0 ff 0f 	and	#4095,	&0x01b2	;#0x0fff
    c750:	b2 01 
    c752:	b2 d0 00 30 	bis	#12288,	&0x01b2	;#0x3000
    c756:	b2 01 
    c758:	b2 d0 03 00 	bis	#3,	&0x01b0	;#0x0003
    c75c:	b0 01 
    c75e:	30 41       	ret			
    c760:	b2 f0 ff 0f 	and	#4095,	&0x01b2	;#0x0fff
    c764:	b2 01 
    c766:	b2 d0 00 50 	bis	#20480,	&0x01b2	;#0x5000
    c76a:	b2 01 
    c76c:	b2 d0 03 00 	bis	#3,	&0x01b0	;#0x0003
    c770:	b0 01 
    c772:	30 41       	ret			
    c774:	b2 f0 ff 0f 	and	#4095,	&0x01b2	;#0x0fff
    c778:	b2 01 
    c77a:	b2 d0 00 40 	bis	#16384,	&0x01b2	;#0x4000
    c77e:	b2 01 
    c780:	b2 d0 03 00 	bis	#3,	&0x01b0	;#0x0003
    c784:	b0 01 
    c786:	30 41       	ret			

0000c788 <ADC10_ISR>:
    c788:	0f 12       	push	r15		
    c78a:	0e 12       	push	r14		
    c78c:	0d 12       	push	r13		
    c78e:	0c 12       	push	r12		
    c790:	5f 42 9f 02 	mov.b	&0x029f,r15	
    c794:	4f 93       	tst.b	r15		
    c796:	24 24       	jz	$+74     	;abs 0xc7e0
    c798:	5f 42 9f 02 	mov.b	&0x029f,r15	
    c79c:	7f 90 03 00 	cmp.b	#3,	r15	;#0x0003
    c7a0:	26 24       	jz	$+78     	;abs 0xc7ee
    c7a2:	5f 42 9f 02 	mov.b	&0x029f,r15	
    c7a6:	6f 92       	cmp.b	#4,	r15	;r2 As==10
    c7a8:	28 24       	jz	$+82     	;abs 0xc7fa
    c7aa:	5f 42 9f 02 	mov.b	&0x029f,r15	
    c7ae:	7f 90 05 00 	cmp.b	#5,	r15	;#0x0005
    c7b2:	07 20       	jnz	$+16     	;abs 0xc7c2
    c7b4:	92 42 b4 01 	mov	&0x01b4,&0x029a	
    c7b8:	9a 02 
    c7ba:	c2 43 9f 02 	mov.b	#0,	&0x029f	;r3 As==00
    c7be:	d2 43 a0 02 	mov.b	#1,	&0x02a0	;r3 As==01
    c7c2:	b2 f0 fc ff 	and	#-4,	&0x01b0	;#0xfffc
    c7c6:	b0 01 
    c7c8:	b2 f0 fb ff 	and	#-5,	&0x01b0	;#0xfffb
    c7cc:	b0 01 
    c7ce:	5f 42 9f 02 	mov.b	&0x029f,r15	
    c7d2:	b0 12 26 c7 	call	#0xc726	
    c7d6:	3c 41       	pop	r12		
    c7d8:	3d 41       	pop	r13		
    c7da:	3e 41       	pop	r14		
    c7dc:	3f 41       	pop	r15		
    c7de:	00 13       	reti			
    c7e0:	92 42 b4 01 	mov	&0x01b4,&0x028c	
    c7e4:	8c 02 
    c7e6:	f2 40 03 00 	mov.b	#3,	&0x029f	;#0x0003
    c7ea:	9f 02 
    c7ec:	ea 3f       	jmp	$-42     	;abs 0xc7c2
    c7ee:	92 42 b4 01 	mov	&0x01b4,&0x0288	
    c7f2:	88 02 
    c7f4:	e2 42 9f 02 	mov.b	#4,	&0x029f	;r2 As==10
    c7f8:	e4 3f       	jmp	$-54     	;abs 0xc7c2
    c7fa:	92 42 b4 01 	mov	&0x01b4,&0x029c	
    c7fe:	9c 02 
    c800:	f2 40 05 00 	mov.b	#5,	&0x029f	;#0x0005
    c804:	9f 02 
    c806:	dd 3f       	jmp	$-68     	;abs 0xc7c2

0000c808 <PIDInit>:
    c808:	bf 40 03 00 	mov	#3,	0(r15)	;#0x0003, 0x0000(r15)
    c80c:	00 00 
    c80e:	8f 43 02 00 	mov	#0,	2(r15)	;r3 As==00, 0x0002(r15)
    c812:	8f 43 04 00 	mov	#0,	4(r15)	;r3 As==00, 0x0004(r15)
    c816:	8f 43 06 00 	mov	#0,	6(r15)	;r3 As==00, 0x0006(r15)
    c81a:	8f 43 08 00 	mov	#0,	8(r15)	;r3 As==00, 0x0008(r15)
    c81e:	8f 43 0a 00 	mov	#0,	10(r15)	;r3 As==00, 0x000a(r15)
    c822:	0f 43       	clr	r15		
    c824:	30 41       	ret			

0000c826 <SetPIDTuning>:
    c826:	8f 4e 00 00 	mov	r14,	0(r15)	;0x0000(r15)
    c82a:	8f 4d 02 00 	mov	r13,	2(r15)	;0x0002(r15)
    c82e:	8f 4c 04 00 	mov	r12,	4(r15)	;0x0004(r15)
    c832:	0f 43       	clr	r15		
    c834:	30 41       	ret			

0000c836 <CalculatePID>:
    c836:	0b 12       	push	r11		
    c838:	0a 12       	push	r10		
    c83a:	09 12       	push	r9		
    c83c:	08 12       	push	r8		
    c83e:	07 12       	push	r7		
    c840:	0b 4f       	mov	r15,	r11	
    c842:	7f 40 03 00 	mov.b	#3,	r15	;#0x0003
    c846:	b0 12 02 c7 	call	#0xc702	
    c84a:	1a 4b 06 00 	mov	6(r11),	r10	;0x0006(r11)
    c84e:	0a 8f       	sub	r15,	r10	
    c850:	2f 4b       	mov	@r11,	r15	
    c852:	0e 4a       	mov	r10,	r14	
    c854:	b0 12 c2 c9 	call	#0xc9c2	
    c858:	07 4f       	mov	r15,	r7	
    c85a:	8b 5a 08 00 	add	r10,	8(r11)	;0x0008(r11)
    c85e:	1f 4b 08 00 	mov	8(r11),	r15	;0x0008(r11)
    c862:	3f 90 1f 00 	cmp	#31,	r15	;#0x001f
    c866:	38 38       	jl	$+114    	;abs 0xc8d8
    c868:	bb 40 1e 00 	mov	#30,	8(r11)	;#0x001e, 0x0008(r11)
    c86c:	08 00 
    c86e:	1d 4b 02 00 	mov	2(r11),	r13	;0x0002(r11)
    c872:	1e 4b 08 00 	mov	8(r11),	r14	;0x0008(r11)
    c876:	19 4b 04 00 	mov	4(r11),	r9	;0x0004(r11)
    c87a:	18 4b 0a 00 	mov	10(r11),r8	;0x000a(r11)
    c87e:	8b 4a 0a 00 	mov	r10,	10(r11)	;0x000a(r11)
    c882:	0f 4d       	mov	r13,	r15	
    c884:	b0 12 c2 c9 	call	#0xc9c2	
    c888:	0b 47       	mov	r7,	r11	
    c88a:	0b 5f       	add	r15,	r11	
    c88c:	0e 4a       	mov	r10,	r14	
    c88e:	0e 88       	sub	r8,	r14	
    c890:	0f 49       	mov	r9,	r15	
    c892:	b0 12 c2 c9 	call	#0xc9c2	
    c896:	0f 5b       	add	r11,	r15	
    c898:	0e 4f       	mov	r15,	r14	
    c89a:	8e 10       	swpb	r14		
    c89c:	8e 11       	sxt	r14		
    c89e:	8e 10       	swpb	r14		
    c8a0:	8e 11       	sxt	r14		
    c8a2:	11 38       	jl	$+36     	;abs 0xc8c6
    c8a4:	1e 93       	cmp	#1,	r14	;r3 As==01
    c8a6:	0c 38       	jl	$+26     	;abs 0xc8c0
    c8a8:	3f 40 48 2e 	mov	#11848,	r15	;#0x2e48
    c8ac:	1e 43       	mov	#1,	r14	;r3 As==01
    c8ae:	b0 12 7e c9 	call	#0xc97e	
    c8b2:	0f 43       	clr	r15		
    c8b4:	37 41       	pop	r7		
    c8b6:	38 41       	pop	r8		
    c8b8:	39 41       	pop	r9		
    c8ba:	3a 41       	pop	r10		
    c8bc:	3b 41       	pop	r11		
    c8be:	30 41       	ret			
    c8c0:	3f 90 49 2e 	cmp	#11849,	r15	;#0x2e49
    c8c4:	f1 2f       	jc	$-28     	;abs 0xc8a8
    c8c6:	0e 93       	tst	r14		
    c8c8:	04 38       	jl	$+10     	;abs 0xc8d2
    c8ca:	f0 23       	jnz	$-30     	;abs 0xc8ac
    c8cc:	3f 90 c8 00 	cmp	#200,	r15	;#0x00c8
    c8d0:	ed 2f       	jc	$-36     	;abs 0xc8ac
    c8d2:	3f 40 c8 00 	mov	#200,	r15	;#0x00c8
    c8d6:	ea 3f       	jmp	$-42     	;abs 0xc8ac
    c8d8:	1f 4b 08 00 	mov	8(r11),	r15	;0x0008(r11)
    c8dc:	3f 90 e2 ff 	cmp	#-30,	r15	;#0xffe2
    c8e0:	c6 37       	jge	$-114    	;abs 0xc86e
    c8e2:	bb 40 e2 ff 	mov	#-30,	8(r11)	;#0xffe2, 0x0008(r11)
    c8e6:	08 00 
    c8e8:	c2 3f       	jmp	$-122    	;abs 0xc86e

0000c8ea <PIDSetPoint>:
    c8ea:	8f 4e 06 00 	mov	r14,	6(r15)	;0x0006(r15)
    c8ee:	0f 43       	clr	r15		
    c8f0:	30 41       	ret			

0000c8f2 <AutoCal>:
    c8f2:	0f 43       	clr	r15		
    c8f4:	30 41       	ret			

0000c8f6 <TimerA0Init>:
    c8f6:	b2 40 10 00 	mov	#16,	&0x0162	;#0x0010
    c8fa:	62 01 
    c8fc:	82 4f 72 01 	mov	r15,	&0x0172	
    c900:	b2 40 10 01 	mov	#272,	&0x0160	;#0x0110
    c904:	60 01 
    c906:	0f 43       	clr	r15		
    c908:	30 41       	ret			

0000c90a <TimerA1Init>:
    c90a:	f2 40 12 00 	mov.b	#18,	&0x002e	;#0x0012
    c90e:	2e 00 
    c910:	c2 43 42 00 	mov.b	#0,	&0x0042	;r3 As==00
    c914:	f2 40 13 00 	mov.b	#19,	&0x002a	;#0x0013
    c918:	2a 00 
    c91a:	b2 40 10 2f 	mov	#12048,	&0x0192	;#0x2f10
    c91e:	92 01 
    c920:	b2 40 c0 00 	mov	#192,	&0x0184	;#0x00c0
    c924:	84 01 
    c926:	b2 40 c0 00 	mov	#192,	&0x0186	;#0x00c0
    c92a:	86 01 
    c92c:	b2 40 c8 00 	mov	#200,	&0x0194	;#0x00c8
    c930:	94 01 
    c932:	b2 40 c8 00 	mov	#200,	&0x0196	;#0x00c8
    c936:	96 01 
    c938:	b2 40 10 01 	mov	#272,	&0x0180	;#0x0110
    c93c:	80 01 
    c93e:	0f 43       	clr	r15		
    c940:	30 41       	ret			

0000c942 <PWMUpdate>:
    c942:	2e 93       	cmp	#2,	r14	;r3 As==10
    c944:	11 24       	jz	$+36     	;abs 0xc968
    c946:	1e 93       	cmp	#1,	r14	;r3 As==01
    c948:	16 20       	jnz	$+46     	;abs 0xc976
    c94a:	1d 42 94 01 	mov	&0x0194,r13	
    c94e:	0f 5d       	add	r13,	r15	
    c950:	0d 4f       	mov	r15,	r13	
    c952:	3d 50 38 ff 	add	#-200,	r13	;#0xff38
    c956:	3d 90 81 2d 	cmp	#11649,	r13	;#0x2d81
    c95a:	0f 2c       	jc	$+32     	;abs 0xc97a
    c95c:	2e 93       	cmp	#2,	r14	;r3 As==10
    c95e:	07 24       	jz	$+16     	;abs 0xc96e
    c960:	82 4f 94 01 	mov	r15,	&0x0194	
    c964:	0f 43       	clr	r15		
    c966:	30 41       	ret			
    c968:	1d 42 96 01 	mov	&0x0196,r13	
    c96c:	f0 3f       	jmp	$-30     	;abs 0xc94e
    c96e:	82 4f 96 01 	mov	r15,	&0x0196	
    c972:	0f 43       	clr	r15		
    c974:	30 41       	ret			
    c976:	3f 43       	mov	#-1,	r15	;r3 As==11
    c978:	30 41       	ret			
    c97a:	3f 43       	mov	#-1,	r15	;r3 As==11
    c97c:	30 41       	ret			

0000c97e <PWMSet>:
    c97e:	0d 4f       	mov	r15,	r13	
    c980:	3d 50 38 ff 	add	#-200,	r13	;#0xff38
    c984:	3d 90 81 2d 	cmp	#11649,	r13	;#0x2d81
    c988:	0a 2c       	jc	$+22     	;abs 0xc99e
    c98a:	2e 93       	cmp	#2,	r14	;r3 As==10
    c98c:	04 24       	jz	$+10     	;abs 0xc996
    c98e:	82 4f 94 01 	mov	r15,	&0x0194	
    c992:	0f 43       	clr	r15		
    c994:	30 41       	ret			
    c996:	82 4f 96 01 	mov	r15,	&0x0196	
    c99a:	0f 43       	clr	r15		
    c99c:	30 41       	ret			
    c99e:	3f 43       	mov	#-1,	r15	;r3 As==11
    c9a0:	30 41       	ret			

0000c9a2 <TA0_ISR>:
    c9a2:	0f 12       	push	r15		
    c9a4:	0e 12       	push	r14		
    c9a6:	0d 12       	push	r13		
    c9a8:	0c 12       	push	r12		
    c9aa:	b2 f0 fe ff 	and	#-2,	&0x0162	;#0xfffe
    c9ae:	62 01 
    c9b0:	3f 40 8e 02 	mov	#654,	r15	;#0x028e
    c9b4:	b0 12 36 c8 	call	#0xc836	
    c9b8:	3c 41       	pop	r12		
    c9ba:	3d 41       	pop	r13		
    c9bc:	3e 41       	pop	r14		
    c9be:	3f 41       	pop	r15		
    c9c0:	00 13       	reti			

0000c9c2 <__mulhi3>:
    c9c2:	0d 4f       	mov	r15,	r13	
    c9c4:	0f 43       	clr	r15		
    c9c6:	0e 93       	tst	r14		
    c9c8:	07 24       	jz	$+16     	;abs 0xc9d8
    c9ca:	12 c3       	clrc			
    c9cc:	0d 10       	rrc	r13		
    c9ce:	01 28       	jnc	$+4      	;abs 0xc9d2
    c9d0:	0f 5e       	add	r14,	r15	
    c9d2:	0e 5e       	rla	r14		
    c9d4:	0d 93       	tst	r13		
    c9d6:	f7 23       	jnz	$-16     	;abs 0xc9c6
    c9d8:	30 41       	ret			

0000c9da <strcmp>:
    c9da:	03 3c       	jmp	$+8      	;abs 0xc9e2
    c9dc:	1f 53       	inc	r15		
    c9de:	4d 93       	tst.b	r13		
    c9e0:	09 24       	jz	$+20     	;abs 0xc9f4
    c9e2:	6d 4f       	mov.b	@r15,	r13	
    c9e4:	7c 4e       	mov.b	@r14+,	r12	
    c9e6:	4d 9c       	cmp.b	r12,	r13	
    c9e8:	f9 27       	jz	$-12     	;abs 0xc9dc
    c9ea:	4f 4d       	mov.b	r13,	r15	
    c9ec:	5e 4e ff ff 	mov.b	-1(r14),r14	;0xffff(r14)
    c9f0:	0f 8e       	sub	r14,	r15	
    c9f2:	30 41       	ret			
    c9f4:	0f 43       	clr	r15		
    c9f6:	30 41       	ret			

0000c9f8 <strcpy>:
    c9f8:	0d 4f       	mov	r15,	r13	
    c9fa:	02 3c       	jmp	$+6      	;abs 0xca00
    c9fc:	1e 53       	inc	r14		
    c9fe:	1d 53       	inc	r13		
    ca00:	6c 4e       	mov.b	@r14,	r12	
    ca02:	cd 4c 00 00 	mov.b	r12,	0(r13)	;0x0000(r13)
    ca06:	4c 93       	tst.b	r12		
    ca08:	f9 23       	jnz	$-12     	;abs 0xc9fc
    ca0a:	30 41       	ret			

0000ca0c <memset>:
    ca0c:	0b 12       	push	r11		
    ca0e:	0a 12       	push	r10		
    ca10:	09 12       	push	r9		
    ca12:	08 12       	push	r8		
    ca14:	3d 90 06 00 	cmp	#6,	r13	;#0x0006
    ca18:	09 2c       	jc	$+20     	;abs 0xca2c
    ca1a:	0c 4f       	mov	r15,	r12	
    ca1c:	04 3c       	jmp	$+10     	;abs 0xca26
    ca1e:	cc 4e 00 00 	mov.b	r14,	0(r12)	;0x0000(r12)
    ca22:	1c 53       	inc	r12		
    ca24:	3d 53       	add	#-1,	r13	;r3 As==11
    ca26:	0d 93       	tst	r13		
    ca28:	fa 23       	jnz	$-10     	;abs 0xca1e
    ca2a:	20 3c       	jmp	$+66     	;abs 0xca6c
    ca2c:	4e 4e       	mov.b	r14,	r14	
    ca2e:	4b 4e       	mov.b	r14,	r11	
    ca30:	0b 93       	tst	r11		
    ca32:	03 24       	jz	$+8      	;abs 0xca3a
    ca34:	0c 4b       	mov	r11,	r12	
    ca36:	8c 10       	swpb	r12		
    ca38:	0b dc       	bis	r12,	r11	
    ca3a:	1f b3       	bit	#1,	r15	;r3 As==01
    ca3c:	06 24       	jz	$+14     	;abs 0xca4a
    ca3e:	3d 53       	add	#-1,	r13	;r3 As==11
    ca40:	cf 4e 00 00 	mov.b	r14,	0(r15)	;0x0000(r15)
    ca44:	09 4f       	mov	r15,	r9	
    ca46:	19 53       	inc	r9		
    ca48:	01 3c       	jmp	$+4      	;abs 0xca4c
    ca4a:	09 4f       	mov	r15,	r9	
    ca4c:	0c 4d       	mov	r13,	r12	
    ca4e:	12 c3       	clrc			
    ca50:	0c 10       	rrc	r12		
    ca52:	0a 49       	mov	r9,	r10	
    ca54:	08 4c       	mov	r12,	r8	
    ca56:	8a 4b 00 00 	mov	r11,	0(r10)	;0x0000(r10)
    ca5a:	2a 53       	incd	r10		
    ca5c:	38 53       	add	#-1,	r8	;r3 As==11
    ca5e:	fb 23       	jnz	$-8      	;abs 0xca56
    ca60:	0c 5c       	rla	r12		
    ca62:	0c 59       	add	r9,	r12	
    ca64:	1d f3       	and	#1,	r13	;r3 As==01
    ca66:	02 24       	jz	$+6      	;abs 0xca6c
    ca68:	cc 4e 00 00 	mov.b	r14,	0(r12)	;0x0000(r12)
    ca6c:	38 41       	pop	r8		
    ca6e:	39 41       	pop	r9		
    ca70:	3a 41       	pop	r10		
    ca72:	3b 41       	pop	r11		
    ca74:	30 41       	ret			

0000ca76 <strlen>:
    ca76:	0b 12       	push	r11		
    ca78:	0a 12       	push	r10		
    ca7a:	0d 4f       	mov	r15,	r13	
    ca7c:	01 3c       	jmp	$+4      	;abs 0xca80
    ca7e:	1d 53       	inc	r13		
    ca80:	cd 93 00 00 	tst.b	0(r13)		;0x0000(r13)
    ca84:	fc 23       	jnz	$-6      	;abs 0xca7e
    ca86:	0a 4d       	mov	r13,	r10	
    ca88:	8d 10       	swpb	r13		
    ca8a:	8d 11       	sxt	r13		
    ca8c:	8d 10       	swpb	r13		
    ca8e:	8d 11       	sxt	r13		
    ca90:	0b 4d       	mov	r13,	r11	
    ca92:	0c 4f       	mov	r15,	r12	
    ca94:	0e 4f       	mov	r15,	r14	
    ca96:	8e 10       	swpb	r14		
    ca98:	8e 11       	sxt	r14		
    ca9a:	8e 10       	swpb	r14		
    ca9c:	8e 11       	sxt	r14		
    ca9e:	0d 4e       	mov	r14,	r13	
    caa0:	0a 8c       	sub	r12,	r10	
    caa2:	0b 7d       	subc	r13,	r11	
    caa4:	0f 4a       	mov	r10,	r15	
    caa6:	3a 41       	pop	r10		
    caa8:	3b 41       	pop	r11		
    caaa:	30 41       	ret			

0000caac <strstr>:
    caac:	0b 12       	push	r11		
    caae:	0a 12       	push	r10		
    cab0:	09 12       	push	r9		
    cab2:	08 12       	push	r8		
    cab4:	07 12       	push	r7		
    cab6:	0b 4f       	mov	r15,	r11	
    cab8:	69 4e       	mov.b	@r14,	r9	
    caba:	49 93       	tst.b	r9		
    cabc:	1b 24       	jz	$+56     	;abs 0xcaf4
    cabe:	0a 4e       	mov	r14,	r10	
    cac0:	1a 53       	inc	r10		
    cac2:	0d 4e       	mov	r14,	r13	
    cac4:	1d 53       	inc	r13		
    cac6:	cd 93 00 00 	tst.b	0(r13)		;0x0000(r13)
    caca:	fc 23       	jnz	$-6      	;abs 0xcac4
    cacc:	07 4d       	mov	r13,	r7	
    cace:	07 8a       	sub	r10,	r7	
    cad0:	01 3c       	jmp	$+4      	;abs 0xcad4
    cad2:	0b 48       	mov	r8,	r11	
    cad4:	6f 4b       	mov.b	@r11,	r15	
    cad6:	4f 93       	tst.b	r15		
    cad8:	0c 24       	jz	$+26     	;abs 0xcaf2
    cada:	08 4b       	mov	r11,	r8	
    cadc:	18 53       	inc	r8		
    cade:	4f 99       	cmp.b	r9,	r15	
    cae0:	f8 23       	jnz	$-14     	;abs 0xcad2
    cae2:	0d 47       	mov	r7,	r13	
    cae4:	0e 4a       	mov	r10,	r14	
    cae6:	0f 48       	mov	r8,	r15	
    cae8:	b0 12 98 d4 	call	#0xd498	
    caec:	0f 93       	tst	r15		
    caee:	f1 23       	jnz	$-28     	;abs 0xcad2
    caf0:	01 3c       	jmp	$+4      	;abs 0xcaf4
    caf2:	0b 43       	clr	r11		
    caf4:	0f 4b       	mov	r11,	r15	
    caf6:	37 41       	pop	r7		
    caf8:	38 41       	pop	r8		
    cafa:	39 41       	pop	r9		
    cafc:	3a 41       	pop	r10		
    cafe:	3b 41       	pop	r11		
    cb00:	30 41       	ret			

0000cb02 <strcat>:
    cb02:	0d 4f       	mov	r15,	r13	
    cb04:	01 3c       	jmp	$+4      	;abs 0xcb08
    cb06:	1d 53       	inc	r13		
    cb08:	cd 93 00 00 	tst.b	0(r13)		;0x0000(r13)
    cb0c:	fc 23       	jnz	$-6      	;abs 0xcb06
    cb0e:	7c 4e       	mov.b	@r14+,	r12	
    cb10:	cd 4c 00 00 	mov.b	r12,	0(r13)	;0x0000(r13)
    cb14:	1d 53       	inc	r13		
    cb16:	4c 93       	tst.b	r12		
    cb18:	fa 23       	jnz	$-10     	;abs 0xcb0e
    cb1a:	30 41       	ret			

0000cb1c <atoi>:
    cb1c:	0b 12       	push	r11		
    cb1e:	0e 4f       	mov	r15,	r14	
    cb20:	01 3c       	jmp	$+4      	;abs 0xcb24
    cb22:	1e 53       	inc	r14		
    cb24:	6f 4e       	mov.b	@r14,	r15	
    cb26:	7f 90 20 00 	cmp.b	#32,	r15	;#0x0020
    cb2a:	fb 27       	jz	$-8      	;abs 0xcb22
    cb2c:	7f 90 09 00 	cmp.b	#9,	r15	;#0x0009
    cb30:	f8 27       	jz	$-14     	;abs 0xcb22
    cb32:	7f 90 0a 00 	cmp.b	#10,	r15	;#0x000a
    cb36:	f5 27       	jz	$-20     	;abs 0xcb22
    cb38:	7f 90 0c 00 	cmp.b	#12,	r15	;#0x000c
    cb3c:	f2 27       	jz	$-26     	;abs 0xcb22
    cb3e:	7f 90 0d 00 	cmp.b	#13,	r15	;#0x000d
    cb42:	ef 27       	jz	$-32     	;abs 0xcb22
    cb44:	7f 90 0b 00 	cmp.b	#11,	r15	;#0x000b
    cb48:	ec 27       	jz	$-38     	;abs 0xcb22
    cb4a:	7f 90 2d 00 	cmp.b	#45,	r15	;#0x002d
    cb4e:	03 20       	jnz	$+8      	;abs 0xcb56
    cb50:	1e 53       	inc	r14		
    cb52:	1b 43       	mov	#1,	r11	;r3 As==01
    cb54:	05 3c       	jmp	$+12     	;abs 0xcb60
    cb56:	7f 90 2b 00 	cmp.b	#43,	r15	;#0x002b
    cb5a:	01 20       	jnz	$+4      	;abs 0xcb5e
    cb5c:	1e 53       	inc	r14		
    cb5e:	0b 43       	clr	r11		
    cb60:	6f 4e       	mov.b	@r14,	r15	
    cb62:	8f 11       	sxt	r15		
    cb64:	3f 50 d0 ff 	add	#-48,	r15	;#0xffd0
    cb68:	3f 90 0a 00 	cmp	#10,	r15	;#0x000a
    cb6c:	19 2c       	jc	$+52     	;abs 0xcba0
    cb6e:	0d 43       	clr	r13		
    cb70:	7c 4e       	mov.b	@r14+,	r12	
    cb72:	8c 11       	sxt	r12		
    cb74:	0f 4c       	mov	r12,	r15	
    cb76:	3f 50 d0 ff 	add	#-48,	r15	;#0xffd0
    cb7a:	0f 5d       	add	r13,	r15	
    cb7c:	6d 4e       	mov.b	@r14,	r13	
    cb7e:	8d 11       	sxt	r13		
    cb80:	3d 50 d0 ff 	add	#-48,	r13	;#0xffd0
    cb84:	3d 90 0a 00 	cmp	#10,	r13	;#0x000a
    cb88:	06 2c       	jc	$+14     	;abs 0xcb96
    cb8a:	0f 5f       	rla	r15		
    cb8c:	0d 4f       	mov	r15,	r13	
    cb8e:	0d 5d       	rla	r13		
    cb90:	0d 5d       	rla	r13		
    cb92:	0d 5f       	add	r15,	r13	
    cb94:	ed 3f       	jmp	$-36     	;abs 0xcb70
    cb96:	0b 93       	tst	r11		
    cb98:	04 24       	jz	$+10     	;abs 0xcba2
    cb9a:	3f e3       	inv	r15		
    cb9c:	1f 53       	inc	r15		
    cb9e:	01 3c       	jmp	$+4      	;abs 0xcba2
    cba0:	0f 43       	clr	r15		
    cba2:	3b 41       	pop	r11		
    cba4:	30 41       	ret			

0000cba6 <append>:
    cba6:	1e 42 86 02 	mov	&0x0286,r14	
    cbaa:	1e 93       	cmp	#1,	r14	;r3 As==01
    cbac:	0b 38       	jl	$+24     	;abs 0xcbc4
    cbae:	1d 42 84 02 	mov	&0x0284,r13	
    cbb2:	cd 4f 00 00 	mov.b	r15,	0(r13)	;0x0000(r13)
    cbb6:	1d 53       	inc	r13		
    cbb8:	82 4d 84 02 	mov	r13,	&0x0284	
    cbbc:	3e 53       	add	#-1,	r14	;r3 As==11
    cbbe:	82 4e 86 02 	mov	r14,	&0x0286	
    cbc2:	30 41       	ret			
    cbc4:	3f 43       	mov	#-1,	r15	;r3 As==11
    cbc6:	30 41       	ret			

0000cbc8 <call_vuprintf>:
    cbc8:	0b 12       	push	r11		
    cbca:	0a 12       	push	r10		
    cbcc:	21 83       	decd	r1		
    cbce:	81 4e 00 00 	mov	r14,	0(r1)	;0x0000(r1)
    cbd2:	1a 42 84 02 	mov	&0x0284,r10	
    cbd6:	1b 42 86 02 	mov	&0x0286,r11	
    cbda:	0d 4e       	mov	r14,	r13	
    cbdc:	0e 4f       	mov	r15,	r14	
    cbde:	3f 40 a6 cb 	mov	#-13402,r15	;#0xcba6
    cbe2:	b0 12 fa cd 	call	#0xcdfa	
    cbe6:	0f 9b       	cmp	r11,	r15	
    cbe8:	05 38       	jl	$+12     	;abs 0xcbf4
    cbea:	0e 4a       	mov	r10,	r14	
    cbec:	0e 5b       	add	r11,	r14	
    cbee:	ce 43 ff ff 	mov.b	#0,	-1(r14)	;r3 As==00, 0xffff(r14)
    cbf2:	04 3c       	jmp	$+10     	;abs 0xcbfc
    cbf4:	1e 42 84 02 	mov	&0x0284,r14	
    cbf8:	ce 43 00 00 	mov.b	#0,	0(r14)	;r3 As==00, 0x0000(r14)
    cbfc:	21 53       	incd	r1		
    cbfe:	3a 41       	pop	r10		
    cc00:	3b 41       	pop	r11		
    cc02:	30 41       	ret			

0000cc04 <sprintf>:
    cc04:	92 41 02 00 	mov	2(r1),	&0x0284	;0x0002(r1)
    cc08:	84 02 
    cc0a:	b2 40 ff 7f 	mov	#32767,	&0x0286	;#0x7fff
    cc0e:	86 02 
    cc10:	0e 41       	mov	r1,	r14	
    cc12:	3e 50 06 00 	add	#6,	r14	;#0x0006
    cc16:	1f 41 04 00 	mov	4(r1),	r15	;0x0004(r1)
    cc1a:	b0 12 c8 cb 	call	#0xcbc8	
    cc1e:	30 41       	ret			

0000cc20 <snprintf>:
    cc20:	92 41 02 00 	mov	2(r1),	&0x0284	;0x0002(r1)
    cc24:	84 02 
    cc26:	92 41 04 00 	mov	4(r1),	&0x0286	;0x0004(r1)
    cc2a:	86 02 
    cc2c:	0e 41       	mov	r1,	r14	
    cc2e:	3e 52       	add	#8,	r14	;r2 As==11
    cc30:	1f 41 06 00 	mov	6(r1),	r15	;0x0006(r1)
    cc34:	b0 12 c8 cb 	call	#0xcbc8	
    cc38:	30 41       	ret			

0000cc3a <vsprintf>:
    cc3a:	0c 4e       	mov	r14,	r12	
    cc3c:	82 4f 84 02 	mov	r15,	&0x0284	
    cc40:	b2 40 ff 7f 	mov	#32767,	&0x0286	;#0x7fff
    cc44:	86 02 
    cc46:	0e 4d       	mov	r13,	r14	
    cc48:	0f 4c       	mov	r12,	r15	
    cc4a:	b0 12 c8 cb 	call	#0xcbc8	
    cc4e:	30 41       	ret			

0000cc50 <vsnprintf>:
    cc50:	82 4f 84 02 	mov	r15,	&0x0284	
    cc54:	82 4e 86 02 	mov	r14,	&0x0286	
    cc58:	0e 4c       	mov	r12,	r14	
    cc5a:	0f 4d       	mov	r13,	r15	
    cc5c:	b0 12 c8 cb 	call	#0xcbc8	
    cc60:	30 41       	ret			

0000cc62 <print_field>:
    cc62:	0b 12       	push	r11		
    cc64:	0a 12       	push	r10		
    cc66:	09 12       	push	r9		
    cc68:	08 12       	push	r8		
    cc6a:	07 12       	push	r7		
    cc6c:	06 12       	push	r6		
    cc6e:	05 12       	push	r5		
    cc70:	04 12       	push	r4		
    cc72:	31 82       	sub	#8,	r1	;r2 As==11
    cc74:	08 4f       	mov	r15,	r8	
    cc76:	81 4e 04 00 	mov	r14,	4(r1)	;0x0004(r1)
    cc7a:	09 4d       	mov	r13,	r9	
    cc7c:	1f 41 1a 00 	mov	26(r1),	r15	;0x001a(r1)
    cc80:	1d 41 1c 00 	mov	28(r1),	r13	;0x001c(r1)
    cc84:	4c 4d       	mov.b	r13,	r12	
    cc86:	04 4d       	mov	r13,	r4	
    cc88:	84 10       	swpb	r4		
    cc8a:	45 44       	mov.b	r4,	r5	
    cc8c:	4e 4f       	mov.b	r15,	r14	
    cc8e:	7e b0 40 00 	bit.b	#64,	r14	;#0x0040
    cc92:	11 24       	jz	$+36     	;abs 0xccb6
    cc94:	f1 40 30 00 	mov.b	#48,	0(r1)	;#0x0030, 0x0000(r1)
    cc98:	00 00 
    cc9a:	0e 4f       	mov	r15,	r14	
    cc9c:	8e 10       	swpb	r14		
    cc9e:	5e f3       	and.b	#1,	r14	;r3 As==01
    cca0:	03 24       	jz	$+8      	;abs 0xcca8
    cca2:	7e 40 58 00 	mov.b	#88,	r14	;#0x0058
    cca6:	02 3c       	jmp	$+6      	;abs 0xccac
    cca8:	7e 40 78 00 	mov.b	#120,	r14	;#0x0078
    ccac:	c1 4e 01 00 	mov.b	r14,	1(r1)	;0x0001(r1)
    ccb0:	0c 41       	mov	r1,	r12	
    ccb2:	2c 53       	incd	r12		
    ccb4:	0f 3c       	jmp	$+32     	;abs 0xccd4
    ccb6:	7e f0 20 00 	and.b	#32,	r14	;#0x0020
    ccba:	04 24       	jz	$+10     	;abs 0xccc4
    ccbc:	f1 40 30 00 	mov.b	#48,	0(r1)	;#0x0030, 0x0000(r1)
    ccc0:	00 00 
    ccc2:	04 3c       	jmp	$+10     	;abs 0xcccc
    ccc4:	4c 93       	tst.b	r12		
    ccc6:	05 24       	jz	$+12     	;abs 0xccd2
    ccc8:	c1 4d 00 00 	mov.b	r13,	0(r1)	;0x0000(r1)
    cccc:	0c 41       	mov	r1,	r12	
    ccce:	1c 53       	inc	r12		
    ccd0:	01 3c       	jmp	$+4      	;abs 0xccd4
    ccd2:	0c 41       	mov	r1,	r12	
    ccd4:	0a 4c       	mov	r12,	r10	
    ccd6:	8c 10       	swpb	r12		
    ccd8:	8c 11       	sxt	r12		
    ccda:	8c 10       	swpb	r12		
    ccdc:	8c 11       	sxt	r12		
    ccde:	0b 4c       	mov	r12,	r11	
    cce0:	06 41       	mov	r1,	r6	
    cce2:	0c 41       	mov	r1,	r12	
    cce4:	8c 10       	swpb	r12		
    cce6:	8c 11       	sxt	r12		
    cce8:	8c 10       	swpb	r12		
    ccea:	8c 11       	sxt	r12		
    ccec:	07 4c       	mov	r12,	r7	
    ccee:	0a 86       	sub	r6,	r10	
    ccf0:	0b 77       	subc	r7,	r11	
    ccf2:	0e 4f       	mov	r15,	r14	
    ccf4:	8e 10       	swpb	r14		
    ccf6:	c1 4e 02 00 	mov.b	r14,	2(r1)	;0x0002(r1)
    ccfa:	6e f2       	and.b	#4,	r14	;r2 As==10
    ccfc:	02 24       	jz	$+6      	;abs 0xcd02
    ccfe:	07 45       	mov	r5,	r7	
    cd00:	01 3c       	jmp	$+4      	;abs 0xcd04
    cd02:	37 43       	mov	#-1,	r7	;r3 As==11
    cd04:	4f 4f       	mov.b	r15,	r15	
    cd06:	7f b0 10 00 	bit.b	#16,	r15	;#0x0010
    cd0a:	3c 20       	jnz	$+122    	;abs 0xcd84
    cd0c:	1d 41 04 00 	mov	4(r1),	r13	;0x0004(r1)
    cd10:	3d 53       	add	#-1,	r13	;r3 As==11
    cd12:	1d 53       	inc	r13		
    cd14:	cd 93 00 00 	tst.b	0(r13)		;0x0000(r13)
    cd18:	fc 23       	jnz	$-6      	;abs 0xcd12
    cd1a:	1d 81 04 00 	sub	4(r1),	r13	;0x0004(r1)
    cd1e:	09 9a       	cmp	r10,	r9	
    cd20:	02 28       	jnc	$+6      	;abs 0xcd26
    cd22:	09 8a       	sub	r10,	r9	
    cd24:	01 3c       	jmp	$+4      	;abs 0xcd28
    cd26:	09 43       	clr	r9		
    cd28:	e1 b3 02 00 	bit.b	#2,	2(r1)	;r3 As==10, 0x0002(r1)
    cd2c:	05 24       	jz	$+12     	;abs 0xcd38
    cd2e:	09 95       	cmp	r5,	r9	
    cd30:	02 28       	jnc	$+6      	;abs 0xcd36
    cd32:	09 85       	sub	r5,	r9	
    cd34:	01 3c       	jmp	$+4      	;abs 0xcd38
    cd36:	09 43       	clr	r9		
    cd38:	05 4d       	mov	r13,	r5	
    cd3a:	07 9d       	cmp	r13,	r7	
    cd3c:	01 2c       	jc	$+4      	;abs 0xcd40
    cd3e:	05 47       	mov	r7,	r5	
    cd40:	4f 93       	tst.b	r15		
    cd42:	0d 38       	jl	$+28     	;abs 0xcd5e
    cd44:	f1 40 20 00 	mov.b	#32,	6(r1)	;#0x0020, 0x0006(r1)
    cd48:	06 00 
    cd4a:	06 43       	clr	r6		
    cd4c:	0b 43       	clr	r11		
    cd4e:	0e 3c       	jmp	$+30     	;abs 0xcd6c
    cd50:	0f 41       	mov	r1,	r15	
    cd52:	0f 56       	add	r6,	r15	
    cd54:	6f 4f       	mov.b	@r15,	r15	
    cd56:	8f 11       	sxt	r15		
    cd58:	16 53       	inc	r6		
    cd5a:	88 12       	call	r8		
    cd5c:	01 3c       	jmp	$+4      	;abs 0xcd60
    cd5e:	06 43       	clr	r6		
    cd60:	06 9a       	cmp	r10,	r6	
    cd62:	f6 3b       	jl	$-18     	;abs 0xcd50
    cd64:	0b 4a       	mov	r10,	r11	
    cd66:	f1 40 30 00 	mov.b	#48,	6(r1)	;#0x0030, 0x0006(r1)
    cd6a:	06 00 
    cd6c:	05 8b       	sub	r11,	r5	
    cd6e:	05 3c       	jmp	$+12     	;abs 0xcd7a
    cd70:	5f 41 06 00 	mov.b	6(r1),	r15	;0x0006(r1)
    cd74:	8f 11       	sxt	r15		
    cd76:	88 12       	call	r8		
    cd78:	1b 53       	inc	r11		
    cd7a:	0f 45       	mov	r5,	r15	
    cd7c:	0f 5b       	add	r11,	r15	
    cd7e:	0f 99       	cmp	r9,	r15	
    cd80:	f7 2b       	jnc	$-16     	;abs 0xcd70
    cd82:	0a 3c       	jmp	$+22     	;abs 0xcd98
    cd84:	06 43       	clr	r6		
    cd86:	0b 43       	clr	r11		
    cd88:	07 3c       	jmp	$+16     	;abs 0xcd98
    cd8a:	1b 53       	inc	r11		
    cd8c:	0f 41       	mov	r1,	r15	
    cd8e:	0f 56       	add	r6,	r15	
    cd90:	6f 4f       	mov.b	@r15,	r15	
    cd92:	8f 11       	sxt	r15		
    cd94:	16 53       	inc	r6		
    cd96:	88 12       	call	r8		
    cd98:	06 9a       	cmp	r10,	r6	
    cd9a:	f7 3b       	jl	$-16     	;abs 0xcd8a
    cd9c:	e1 b3 02 00 	bit.b	#2,	2(r1)	;r3 As==10, 0x0002(r1)
    cda0:	02 24       	jz	$+6      	;abs 0xcda6
    cda2:	4a 44       	mov.b	r4,	r10	
    cda4:	08 3c       	jmp	$+18     	;abs 0xcdb6
    cda6:	1a 41 04 00 	mov	4(r1),	r10	;0x0004(r1)
    cdaa:	0a 8b       	sub	r11,	r10	
    cdac:	0d 3c       	jmp	$+28     	;abs 0xcdc8
    cdae:	3f 40 30 00 	mov	#48,	r15	;#0x0030
    cdb2:	88 12       	call	r8		
    cdb4:	7a 53       	add.b	#-1,	r10	;r3 As==11
    cdb6:	4a 93       	tst.b	r10		
    cdb8:	fa 23       	jnz	$-10     	;abs 0xcdae
    cdba:	44 44       	mov.b	r4,	r4	
    cdbc:	0b 54       	add	r4,	r11	
    cdbe:	f3 3f       	jmp	$-24     	;abs 0xcda6
    cdc0:	37 53       	add	#-1,	r7	;r3 As==11
    cdc2:	8f 11       	sxt	r15		
    cdc4:	88 12       	call	r8		
    cdc6:	1b 53       	inc	r11		
    cdc8:	0f 4a       	mov	r10,	r15	
    cdca:	0f 5b       	add	r11,	r15	
    cdcc:	6f 4f       	mov.b	@r15,	r15	
    cdce:	4f 93       	tst.b	r15		
    cdd0:	07 24       	jz	$+16     	;abs 0xcde0
    cdd2:	07 93       	tst	r7		
    cdd4:	f5 23       	jnz	$-20     	;abs 0xcdc0
    cdd6:	04 3c       	jmp	$+10     	;abs 0xcde0
    cdd8:	3f 40 20 00 	mov	#32,	r15	;#0x0020
    cddc:	88 12       	call	r8		
    cdde:	1b 53       	inc	r11		
    cde0:	0b 99       	cmp	r9,	r11	
    cde2:	fa 2b       	jnc	$-10     	;abs 0xcdd8
    cde4:	0f 4b       	mov	r11,	r15	
    cde6:	31 52       	add	#8,	r1	;r2 As==11
    cde8:	34 41       	pop	r4		
    cdea:	35 41       	pop	r5		
    cdec:	36 41       	pop	r6		
    cdee:	37 41       	pop	r7		
    cdf0:	38 41       	pop	r8		
    cdf2:	39 41       	pop	r9		
    cdf4:	3a 41       	pop	r10		
    cdf6:	3b 41       	pop	r11		
    cdf8:	30 41       	ret			

0000cdfa <vuprintf>:
    cdfa:	0b 12       	push	r11		
    cdfc:	0a 12       	push	r10		
    cdfe:	09 12       	push	r9		
    ce00:	08 12       	push	r8		
    ce02:	07 12       	push	r7		
    ce04:	06 12       	push	r6		
    ce06:	05 12       	push	r5		
    ce08:	04 12       	push	r4		
    ce0a:	31 50 b6 ff 	add	#-74,	r1	;#0xffb6
    ce0e:	81 4f 3a 00 	mov	r15,	58(r1)	;0x003a(r1)
    ce12:	06 4e       	mov	r14,	r6	
    ce14:	05 4d       	mov	r13,	r5	
    ce16:	81 4e 3e 00 	mov	r14,	62(r1)	;0x003e(r1)
    ce1a:	c1 43 2f 00 	mov.b	#0,	47(r1)	;r3 As==00, 0x002f(r1)
    ce1e:	c1 43 2b 00 	mov.b	#0,	43(r1)	;r3 As==00, 0x002b(r1)
    ce22:	c1 43 2e 00 	mov.b	#0,	46(r1)	;r3 As==00, 0x002e(r1)
    ce26:	c1 43 2a 00 	mov.b	#0,	42(r1)	;r3 As==00, 0x002a(r1)
    ce2a:	81 43 30 00 	mov	#0,	48(r1)	;r3 As==00, 0x0030(r1)
    ce2e:	81 43 26 00 	mov	#0,	38(r1)	;r3 As==00, 0x0026(r1)
    ce32:	07 43       	clr	r7		
    ce34:	81 43 2c 00 	mov	#0,	44(r1)	;r3 As==00, 0x002c(r1)
    ce38:	0e 41       	mov	r1,	r14	
    ce3a:	3e 50 1c 00 	add	#28,	r14	;#0x001c
    ce3e:	81 4e 1c 00 	mov	r14,	28(r1)	;0x001c(r1)
    ce42:	30 40 74 d4 	br	#0xd474	
    ce46:	0f 46       	mov	r6,	r15	
    ce48:	1f 53       	inc	r15		
    ce4a:	81 4f 40 00 	mov	r15,	64(r1)	;0x0040(r1)
    ce4e:	07 93       	tst	r7		
    ce50:	1e 20       	jnz	$+62     	;abs 0xce8e
    ce52:	7e 90 25 00 	cmp.b	#37,	r14	;#0x0025
    ce56:	13 20       	jnz	$+40     	;abs 0xce7e
    ce58:	81 43 00 00 	mov	#0,	0(r1)	;r3 As==00, 0x0000(r1)
    ce5c:	81 43 02 00 	mov	#0,	2(r1)	;r3 As==00, 0x0002(r1)
    ce60:	81 46 3e 00 	mov	r6,	62(r1)	;0x003e(r1)
    ce64:	c1 43 2f 00 	mov.b	#0,	47(r1)	;r3 As==00, 0x002f(r1)
    ce68:	c1 43 2b 00 	mov.b	#0,	43(r1)	;r3 As==00, 0x002b(r1)
    ce6c:	c1 43 2e 00 	mov.b	#0,	46(r1)	;r3 As==00, 0x002e(r1)
    ce70:	c1 43 2a 00 	mov.b	#0,	42(r1)	;r3 As==00, 0x002a(r1)
    ce74:	81 43 30 00 	mov	#0,	48(r1)	;r3 As==00, 0x0030(r1)
    ce78:	30 40 6a d4 	br	#0xd46a	
    ce7c:	05 47       	mov	r7,	r5	
    ce7e:	8e 11       	sxt	r14		
    ce80:	0f 4e       	mov	r14,	r15	
    ce82:	91 12 3c 00 	call	60(r1)		;0x003c(r1)
    ce86:	91 53 2c 00 	inc	44(r1)		;0x002c(r1)
    ce8a:	30 40 50 d4 	br	#0xd450	
    ce8e:	7e 90 63 00 	cmp.b	#99,	r14	;#0x0063
    ce92:	c5 24       	jz	$+396    	;abs 0xd01e
    ce94:	7e 90 64 00 	cmp.b	#100,	r14	;#0x0064
    ce98:	27 34       	jge	$+80     	;abs 0xcee8
    ce9a:	7e 90 30 00 	cmp.b	#48,	r14	;#0x0030
    ce9e:	94 24       	jz	$+298    	;abs 0xcfc8
    cea0:	7e 90 31 00 	cmp.b	#49,	r14	;#0x0031
    cea4:	1a 34       	jge	$+54     	;abs 0xceda
    cea6:	7e 90 2a 00 	cmp.b	#42,	r14	;#0x002a
    ceaa:	77 24       	jz	$+240    	;abs 0xcf9a
    ceac:	7e 90 2b 00 	cmp.b	#43,	r14	;#0x002b
    ceb0:	0a 34       	jge	$+22     	;abs 0xcec6
    ceb2:	7e 90 23 00 	cmp.b	#35,	r14	;#0x0023
    ceb6:	42 24       	jz	$+134    	;abs 0xcf3c
    ceb8:	7e 90 25 00 	cmp.b	#37,	r14	;#0x0025
    cebc:	e0 27       	jz	$-62     	;abs 0xce7e
    cebe:	7e 90 20 00 	cmp.b	#32,	r14	;#0x0020
    cec2:	32 20       	jnz	$+102    	;abs 0xcf28
    cec4:	56 3c       	jmp	$+174    	;abs 0xcf72
    cec6:	7e 90 2d 00 	cmp.b	#45,	r14	;#0x002d
    ceca:	49 24       	jz	$+148    	;abs 0xcf5e
    cecc:	7e 90 2e 00 	cmp.b	#46,	r14	;#0x002e
    ced0:	5b 24       	jz	$+184    	;abs 0xcf88
    ced2:	7e 90 2b 00 	cmp.b	#43,	r14	;#0x002b
    ced6:	28 20       	jnz	$+82     	;abs 0xcf28
    ced8:	47 3c       	jmp	$+144    	;abs 0xcf68
    ceda:	7e 90 3a 00 	cmp.b	#58,	r14	;#0x003a
    cede:	8c 38       	jl	$+282    	;abs 0xcff8
    cee0:	7e 90 58 00 	cmp.b	#88,	r14	;#0x0058
    cee4:	21 20       	jnz	$+68     	;abs 0xcf28
    cee6:	e9 3c       	jmp	$+468    	;abs 0xd0ba
    cee8:	7e 90 6f 00 	cmp.b	#111,	r14	;#0x006f
    ceec:	24 24       	jz	$+74     	;abs 0xcf36
    ceee:	7e 90 70 00 	cmp.b	#112,	r14	;#0x0070
    cef2:	0a 34       	jge	$+22     	;abs 0xcf08
    cef4:	7e 90 69 00 	cmp.b	#105,	r14	;#0x0069
    cef8:	e3 24       	jz	$+456    	;abs 0xd0c0
    cefa:	7e 90 6c 00 	cmp.b	#108,	r14	;#0x006c
    cefe:	22 24       	jz	$+70     	;abs 0xcf44
    cf00:	7e 90 64 00 	cmp.b	#100,	r14	;#0x0064
    cf04:	11 20       	jnz	$+36     	;abs 0xcf28
    cf06:	dc 3c       	jmp	$+442    	;abs 0xd0c0
    cf08:	7e 90 73 00 	cmp.b	#115,	r14	;#0x0073
    cf0c:	98 24       	jz	$+306    	;abs 0xd03e
    cf0e:	7e 90 74 00 	cmp.b	#116,	r14	;#0x0074
    cf12:	04 34       	jge	$+10     	;abs 0xcf1c
    cf14:	7e 90 70 00 	cmp.b	#112,	r14	;#0x0070
    cf18:	07 20       	jnz	$+16     	;abs 0xcf28
    cf1a:	b8 3c       	jmp	$+370    	;abs 0xd08c
    cf1c:	7e 90 75 00 	cmp.b	#117,	r14	;#0x0075
    cf20:	d1 24       	jz	$+420    	;abs 0xd0c4
    cf22:	7e 90 78 00 	cmp.b	#120,	r14	;#0x0078
    cf26:	d2 24       	jz	$+422    	;abs 0xd0cc
    cf28:	19 41 3e 00 	mov	62(r1),	r9	;0x003e(r1)
    cf2c:	18 41 2c 00 	mov	44(r1),	r8	;0x002c(r1)
    cf30:	08 89       	sub	r9,	r8	
    cf32:	30 40 3e d4 	br	#0xd43e	
    cf36:	b1 42 28 00 	mov	#8,	40(r1)	;r2 As==11, 0x0028(r1)
    cf3a:	cb 3c       	jmp	$+408    	;abs 0xd0d2
    cf3c:	f1 d2 00 00 	bis.b	#8,	0(r1)	;r2 As==11, 0x0000(r1)
    cf40:	30 40 6e d4 	br	#0xd46e	
    cf44:	69 41       	mov.b	@r1,	r9	
    cf46:	59 f3       	and.b	#1,	r9	;r3 As==01
    cf48:	6e 41       	mov.b	@r1,	r14	
    cf4a:	04 24       	jz	$+10     	;abs 0xcf54
    cf4c:	7e f0 fe ff 	and.b	#-2,	r14	;#0xfffe
    cf50:	6e d3       	bis.b	#2,	r14	;r3 As==10
    cf52:	01 3c       	jmp	$+4      	;abs 0xcf56
    cf54:	5e d3       	bis.b	#1,	r14	;r3 As==01
    cf56:	c1 4e 00 00 	mov.b	r14,	0(r1)	;0x0000(r1)
    cf5a:	30 40 6e d4 	br	#0xd46e	
    cf5e:	f1 d0 10 00 	bis.b	#16,	0(r1)	;#0x0010, 0x0000(r1)
    cf62:	00 00 
    cf64:	30 40 6e d4 	br	#0xd46e	
    cf68:	f1 40 2b 00 	mov.b	#43,	2(r1)	;#0x002b, 0x0002(r1)
    cf6c:	02 00 
    cf6e:	30 40 6e d4 	br	#0xd46e	
    cf72:	f1 90 2b 00 	cmp.b	#43,	2(r1)	;#0x002b, 0x0002(r1)
    cf76:	02 00 
    cf78:	02 20       	jnz	$+6      	;abs 0xcf7e
    cf7a:	30 40 6e d4 	br	#0xd46e	
    cf7e:	f1 40 20 00 	mov.b	#32,	2(r1)	;#0x0020, 0x0002(r1)
    cf82:	02 00 
    cf84:	30 40 6e d4 	br	#0xd46e	
    cf88:	c1 93 2a 00 	tst.b	42(r1)		;0x002a(r1)
    cf8c:	02 24       	jz	$+6      	;abs 0xcf92
    cf8e:	30 40 54 d4 	br	#0xd454	
    cf92:	d1 43 2e 00 	mov.b	#1,	46(r1)	;r3 As==01, 0x002e(r1)
    cf96:	30 40 6e d4 	br	#0xd46e	
    cf9a:	0e 45       	mov	r5,	r14	
    cf9c:	2e 53       	incd	r14		
    cf9e:	2a 45       	mov	@r5,	r10	
    cfa0:	0a 93       	tst	r10		
    cfa2:	03 38       	jl	$+8      	;abs 0xcfaa
    cfa4:	81 4a 26 00 	mov	r10,	38(r1)	;0x0026(r1)
    cfa8:	0d 3c       	jmp	$+28     	;abs 0xcfc4
    cfaa:	c1 93 2e 00 	tst.b	46(r1)		;0x002e(r1)
    cfae:	02 24       	jz	$+6      	;abs 0xcfb4
    cfb0:	30 40 64 d4 	br	#0xd464	
    cfb4:	f1 d0 10 00 	bis.b	#16,	0(r1)	;#0x0010, 0x0000(r1)
    cfb8:	00 00 
    cfba:	3a e3       	inv	r10		
    cfbc:	81 4a 26 00 	mov	r10,	38(r1)	;0x0026(r1)
    cfc0:	91 53 26 00 	inc	38(r1)		;0x0026(r1)
    cfc4:	05 4e       	mov	r14,	r5	
    cfc6:	27 3c       	jmp	$+80     	;abs 0xd016
    cfc8:	81 93 26 00 	tst	38(r1)		;0x0026(r1)
    cfcc:	15 20       	jnz	$+44     	;abs 0xcff8
    cfce:	c1 93 2e 00 	tst.b	46(r1)		;0x002e(r1)
    cfd2:	12 20       	jnz	$+38     	;abs 0xcff8
    cfd4:	69 41       	mov.b	@r1,	r9	
    cfd6:	79 f0 10 00 	and.b	#16,	r9	;#0x0010
    cfda:	5e 43       	mov.b	#1,	r14	;r3 As==01
    cfdc:	01 24       	jz	$+4      	;abs 0xcfe0
    cfde:	4e 43       	clr.b	r14		
    cfe0:	4e 4e       	mov.b	r14,	r14	
    cfe2:	0e 11       	rra	r14		
    cfe4:	0e 43       	clr	r14		
    cfe6:	4e 10       	rrc.b	r14		
    cfe8:	6a 41       	mov.b	@r1,	r10	
    cfea:	7a f0 7f 00 	and.b	#127,	r10	;#0x007f
    cfee:	4a de       	bis.b	r14,	r10	
    cff0:	c1 4a 00 00 	mov.b	r10,	0(r1)	;0x0000(r1)
    cff4:	30 40 6e d4 	br	#0xd46e	
    cff8:	1a 41 26 00 	mov	38(r1),	r10	;0x0026(r1)
    cffc:	0a 5a       	rla	r10		
    cffe:	0c 4a       	mov	r10,	r12	
    d000:	0c 5c       	rla	r12		
    d002:	0c 5c       	rla	r12		
    d004:	0a 5c       	add	r12,	r10	
    d006:	81 4a 26 00 	mov	r10,	38(r1)	;0x0026(r1)
    d00a:	b1 50 d0 ff 	add	#-48,	38(r1)	;#0xffd0, 0x0026(r1)
    d00e:	26 00 
    d010:	8e 11       	sxt	r14		
    d012:	81 5e 26 00 	add	r14,	38(r1)	;0x0026(r1)
    d016:	d1 43 2a 00 	mov.b	#1,	42(r1)	;r3 As==01, 0x002a(r1)
    d01a:	30 40 6e d4 	br	#0xd46e	
    d01e:	07 45       	mov	r5,	r7	
    d020:	27 53       	incd	r7		
    d022:	6e 45       	mov.b	@r5,	r14	
    d024:	c1 93 2e 00 	tst.b	46(r1)		;0x002e(r1)
    d028:	03 20       	jnz	$+8      	;abs 0xd030
    d02a:	c1 93 2a 00 	tst.b	42(r1)		;0x002a(r1)
    d02e:	26 27       	jz	$-434    	;abs 0xce7c
    d030:	c1 4e 04 00 	mov.b	r14,	4(r1)	;0x0004(r1)
    d034:	c1 43 05 00 	mov.b	#0,	5(r1)	;r3 As==00, 0x0005(r1)
    d038:	0e 41       	mov	r1,	r14	
    d03a:	2e 52       	add	#4,	r14	;r2 As==10
    d03c:	03 3c       	jmp	$+8      	;abs 0xd044
    d03e:	07 45       	mov	r5,	r7	
    d040:	27 53       	incd	r7		
    d042:	2e 45       	mov	@r5,	r14	
    d044:	c1 93 2e 00 	tst.b	46(r1)		;0x002e(r1)
    d048:	07 24       	jz	$+16     	;abs 0xd058
    d04a:	e1 d2 01 00 	bis.b	#4,	1(r1)	;r2 As==10, 0x0001(r1)
    d04e:	1f 41 26 00 	mov	38(r1),	r15	;0x0026(r1)
    d052:	c1 4f 03 00 	mov.b	r15,	3(r1)	;0x0003(r1)
    d056:	06 3c       	jmp	$+14     	;abs 0xd064
    d058:	c1 93 2a 00 	tst.b	42(r1)		;0x002a(r1)
    d05c:	03 24       	jz	$+8      	;abs 0xd064
    d05e:	91 41 26 00 	mov	38(r1),	48(r1)	;0x0026(r1), 0x0030(r1)
    d062:	30 00 
    d064:	0e 93       	tst	r14		
    d066:	02 20       	jnz	$+6      	;abs 0xd06c
    d068:	3e 40 ca d7 	mov	#-10294,r14	;#0xd7ca
    d06c:	11 12 04 00 	push	4(r1)		;0x0004(r1)
    d070:	11 12 04 00 	push	4(r1)		;0x0004(r1)
    d074:	1d 41 34 00 	mov	52(r1),	r13	;0x0034(r1)
    d078:	1f 41 3e 00 	mov	62(r1),	r15	;0x003e(r1)
    d07c:	b0 12 62 cc 	call	#0xcc62	
    d080:	21 52       	add	#4,	r1	;r2 As==10
    d082:	81 5f 2c 00 	add	r15,	44(r1)	;0x002c(r1)
    d086:	05 47       	mov	r7,	r5	
    d088:	30 40 50 d4 	br	#0xd450	
    d08c:	07 45       	mov	r5,	r7	
    d08e:	27 53       	incd	r7		
    d090:	29 45       	mov	@r5,	r9	
    d092:	81 49 1e 00 	mov	r9,	30(r1)	;0x001e(r1)
    d096:	5e 43       	mov.b	#1,	r14	;r3 As==01
    d098:	09 93       	tst	r9		
    d09a:	01 20       	jnz	$+4      	;abs 0xd09e
    d09c:	4e 43       	clr.b	r14		
    d09e:	4e 5e       	rla.b	r14		
    d0a0:	4e 5e       	rla.b	r14		
    d0a2:	4e 5e       	rla.b	r14		
    d0a4:	6a 41       	mov.b	@r1,	r10	
    d0a6:	7a f0 f7 ff 	and.b	#-9,	r10	;#0xfff7
    d0aa:	4a de       	bis.b	r14,	r10	
    d0ac:	c1 4a 00 00 	mov.b	r10,	0(r1)	;0x0000(r1)
    d0b0:	05 47       	mov	r7,	r5	
    d0b2:	b1 40 10 00 	mov	#16,	40(r1)	;#0x0010, 0x0028(r1)
    d0b6:	28 00 
    d0b8:	53 3c       	jmp	$+168    	;abs 0xd160
    d0ba:	d1 d3 01 00 	bis.b	#1,	1(r1)	;r3 As==01, 0x0001(r1)
    d0be:	06 3c       	jmp	$+14     	;abs 0xd0cc
    d0c0:	e1 d2 00 00 	bis.b	#4,	0(r1)	;r2 As==10, 0x0000(r1)
    d0c4:	b1 40 0a 00 	mov	#10,	40(r1)	;#0x000a, 0x0028(r1)
    d0c8:	28 00 
    d0ca:	03 3c       	jmp	$+8      	;abs 0xd0d2
    d0cc:	b1 40 10 00 	mov	#16,	40(r1)	;#0x0010, 0x0028(r1)
    d0d0:	28 00 
    d0d2:	6b 41       	mov.b	@r1,	r11	
    d0d4:	6b b3       	bit.b	#2,	r11	;r3 As==10
    d0d6:	24 24       	jz	$+74     	;abs 0xd120
    d0d8:	0c 45       	mov	r5,	r12	
    d0da:	3c 52       	add	#8,	r12	;r2 As==11
    d0dc:	28 45       	mov	@r5,	r8	
    d0de:	17 45 02 00 	mov	2(r5),	r7	;0x0002(r5)
    d0e2:	16 45 04 00 	mov	4(r5),	r6	;0x0004(r5)
    d0e6:	1b 45 06 00 	mov	6(r5),	r11	;0x0006(r5)
    d0ea:	81 48 1e 00 	mov	r8,	30(r1)	;0x001e(r1)
    d0ee:	81 47 20 00 	mov	r7,	32(r1)	;0x0020(r1)
    d0f2:	81 46 22 00 	mov	r6,	34(r1)	;0x0022(r1)
    d0f6:	81 4b 24 00 	mov	r11,	36(r1)	;0x0024(r1)
    d0fa:	d1 43 2b 00 	mov.b	#1,	43(r1)	;r3 As==01, 0x002b(r1)
    d0fe:	08 93       	tst	r8		
    d100:	06 20       	jnz	$+14     	;abs 0xd10e
    d102:	07 93       	tst	r7		
    d104:	04 20       	jnz	$+10     	;abs 0xd10e
    d106:	06 93       	tst	r6		
    d108:	02 20       	jnz	$+6      	;abs 0xd10e
    d10a:	0b 93       	tst	r11		
    d10c:	02 24       	jz	$+6      	;abs 0xd112
    d10e:	c1 43 2b 00 	mov.b	#0,	43(r1)	;r3 As==00, 0x002b(r1)
    d112:	0b 5b       	rla	r11		
    d114:	0b 43       	clr	r11		
    d116:	0b 6b       	rlc	r11		
    d118:	c1 4b 2f 00 	mov.b	r11,	47(r1)	;0x002f(r1)
    d11c:	05 4c       	mov	r12,	r5	
    d11e:	20 3c       	jmp	$+66     	;abs 0xd160
    d120:	5b f3       	and.b	#1,	r11	;r3 As==01
    d122:	07 45       	mov	r5,	r7	
    d124:	0d 24       	jz	$+28     	;abs 0xd140
    d126:	27 52       	add	#4,	r7	;r2 As==10
    d128:	28 45       	mov	@r5,	r8	
    d12a:	1b 45 02 00 	mov	2(r5),	r11	;0x0002(r5)
    d12e:	81 48 1e 00 	mov	r8,	30(r1)	;0x001e(r1)
    d132:	81 4b 20 00 	mov	r11,	32(r1)	;0x0020(r1)
    d136:	d1 43 2b 00 	mov.b	#1,	43(r1)	;r3 As==01, 0x002b(r1)
    d13a:	08 93       	tst	r8		
    d13c:	09 20       	jnz	$+20     	;abs 0xd150
    d13e:	06 3c       	jmp	$+14     	;abs 0xd14c
    d140:	27 53       	incd	r7		
    d142:	2b 45       	mov	@r5,	r11	
    d144:	81 4b 1e 00 	mov	r11,	30(r1)	;0x001e(r1)
    d148:	d1 43 2b 00 	mov.b	#1,	43(r1)	;r3 As==01, 0x002b(r1)
    d14c:	0b 93       	tst	r11		
    d14e:	02 24       	jz	$+6      	;abs 0xd154
    d150:	c1 43 2b 00 	mov.b	#0,	43(r1)	;r3 As==00, 0x002b(r1)
    d154:	0b 5b       	rla	r11		
    d156:	0b 43       	clr	r11		
    d158:	0b 6b       	rlc	r11		
    d15a:	c1 4b 2f 00 	mov.b	r11,	47(r1)	;0x002f(r1)
    d15e:	05 47       	mov	r7,	r5	
    d160:	f1 b2 00 00 	bit.b	#8,	0(r1)	;r2 As==11, 0x0000(r1)
    d164:	12 24       	jz	$+38     	;abs 0xd18a
    d166:	c1 93 2b 00 	tst.b	43(r1)		;0x002b(r1)
    d16a:	0f 20       	jnz	$+32     	;abs 0xd18a
    d16c:	68 41       	mov.b	@r1,	r8	
    d16e:	b1 90 10 00 	cmp	#16,	40(r1)	;#0x0010, 0x0028(r1)
    d172:	28 00 
    d174:	03 20       	jnz	$+8      	;abs 0xd17c
    d176:	78 d0 40 00 	bis.b	#64,	r8	;#0x0040
    d17a:	05 3c       	jmp	$+12     	;abs 0xd186
    d17c:	b1 92 28 00 	cmp	#8,	40(r1)	;r2 As==11, 0x0028(r1)
    d180:	04 20       	jnz	$+10     	;abs 0xd18a
    d182:	78 d0 20 00 	bis.b	#32,	r8	;#0x0020
    d186:	c1 48 00 00 	mov.b	r8,	0(r1)	;0x0000(r1)
    d18a:	68 41       	mov.b	@r1,	r8	
    d18c:	68 b2       	bit.b	#4,	r8	;r2 As==10
    d18e:	30 24       	jz	$+98     	;abs 0xd1f0
    d190:	c1 93 2f 00 	tst.b	47(r1)		;0x002f(r1)
    d194:	2d 24       	jz	$+92     	;abs 0xd1f0
    d196:	f1 40 2d 00 	mov.b	#45,	2(r1)	;#0x002d, 0x0002(r1)
    d19a:	02 00 
    d19c:	68 b3       	bit.b	#2,	r8	;r3 As==10
    d19e:	11 24       	jz	$+36     	;abs 0xd1c2
    d1a0:	b1 e3 1e 00 	xor	#-1,	30(r1)	;r3 As==11, 0x001e(r1)
    d1a4:	b1 e3 20 00 	xor	#-1,	32(r1)	;r3 As==11, 0x0020(r1)
    d1a8:	b1 e3 22 00 	xor	#-1,	34(r1)	;r3 As==11, 0x0022(r1)
    d1ac:	b1 e3 24 00 	xor	#-1,	36(r1)	;r3 As==11, 0x0024(r1)
    d1b0:	91 53 1e 00 	inc	30(r1)		;0x001e(r1)
    d1b4:	81 63 20 00 	adc	32(r1)		;0x0020(r1)
    d1b8:	81 63 22 00 	adc	34(r1)		;0x0022(r1)
    d1bc:	81 63 24 00 	adc	36(r1)		;0x0024(r1)
    d1c0:	17 3c       	jmp	$+48     	;abs 0xd1f0
    d1c2:	58 b3       	bit.b	#1,	r8	;r3 As==01
    d1c4:	0f 24       	jz	$+32     	;abs 0xd1e4
    d1c6:	1a 41 1e 00 	mov	30(r1),	r10	;0x001e(r1)
    d1ca:	1b 41 20 00 	mov	32(r1),	r11	;0x0020(r1)
    d1ce:	3a e3       	inv	r10		
    d1d0:	3b e3       	inv	r11		
    d1d2:	0e 4a       	mov	r10,	r14	
    d1d4:	0f 4b       	mov	r11,	r15	
    d1d6:	1e 53       	inc	r14		
    d1d8:	0f 63       	adc	r15		
    d1da:	81 4e 1e 00 	mov	r14,	30(r1)	;0x001e(r1)
    d1de:	81 4f 20 00 	mov	r15,	32(r1)	;0x0020(r1)
    d1e2:	06 3c       	jmp	$+14     	;abs 0xd1f0
    d1e4:	1a 41 1e 00 	mov	30(r1),	r10	;0x001e(r1)
    d1e8:	3a e3       	inv	r10		
    d1ea:	1a 53       	inc	r10		
    d1ec:	81 4a 1e 00 	mov	r10,	30(r1)	;0x001e(r1)
    d1f0:	c1 43 1b 00 	mov.b	#0,	27(r1)	;r3 As==00, 0x001b(r1)
    d1f4:	68 b3       	bit.b	#2,	r8	;r3 As==10
    d1f6:	6a 24       	jz	$+214    	;abs 0xd2cc
    d1f8:	16 41 1e 00 	mov	30(r1),	r6	;0x001e(r1)
    d1fc:	91 41 20 00 	mov	32(r1),	60(r1)	;0x0020(r1), 0x003c(r1)
    d200:	3c 00 
    d202:	18 41 22 00 	mov	34(r1),	r8	;0x0022(r1)
    d206:	14 41 24 00 	mov	36(r1),	r4	;0x0024(r1)
    d20a:	07 41       	mov	r1,	r7	
    d20c:	37 50 1a 00 	add	#26,	r7	;#0x001a
    d210:	09 46       	mov	r6,	r9	
    d212:	91 41 28 00 	mov	40(r1),	50(r1)	;0x0028(r1), 0x0032(r1)
    d216:	32 00 
    d218:	1b 41 28 00 	mov	40(r1),	r11	;0x0028(r1)
    d21c:	8b 10       	swpb	r11		
    d21e:	8b 11       	sxt	r11		
    d220:	8b 10       	swpb	r11		
    d222:	8b 11       	sxt	r11		
    d224:	81 4b 34 00 	mov	r11,	52(r1)	;0x0034(r1)
    d228:	81 4b 36 00 	mov	r11,	54(r1)	;0x0036(r1)
    d22c:	81 4b 38 00 	mov	r11,	56(r1)	;0x0038(r1)
    d230:	11 12 3a 00 	push	58(r1)		;0x003a(r1)
    d234:	11 12 3a 00 	push	58(r1)		;0x003a(r1)
    d238:	11 12 3a 00 	push	58(r1)		;0x003a(r1)
    d23c:	11 12 3a 00 	push	58(r1)		;0x003a(r1)
    d240:	0c 49       	mov	r9,	r12	
    d242:	1d 41 44 00 	mov	68(r1),	r13	;0x0044(r1)
    d246:	0e 48       	mov	r8,	r14	
    d248:	0f 44       	mov	r4,	r15	
    d24a:	b0 12 a6 d5 	call	#0xd5a6	
    d24e:	31 52       	add	#8,	r1	;r2 As==11
    d250:	0b 4c       	mov	r12,	r11	
    d252:	3c 90 0a 00 	cmp	#10,	r12	;#0x000a
    d256:	05 34       	jge	$+12     	;abs 0xd262
    d258:	7b 50 30 00 	add.b	#48,	r11	;#0x0030
    d25c:	c7 4b 00 00 	mov.b	r11,	0(r7)	;0x0000(r7)
    d260:	0c 3c       	jmp	$+26     	;abs 0xd27a
    d262:	4b 4c       	mov.b	r12,	r11	
    d264:	d1 b3 01 00 	bit.b	#1,	1(r1)	;r3 As==01, 0x0001(r1)
    d268:	03 24       	jz	$+8      	;abs 0xd270
    d26a:	7a 40 37 00 	mov.b	#55,	r10	;#0x0037
    d26e:	02 3c       	jmp	$+6      	;abs 0xd274
    d270:	7a 40 57 00 	mov.b	#87,	r10	;#0x0057
    d274:	4a 5b       	add.b	r11,	r10	
    d276:	c7 4a 00 00 	mov.b	r10,	0(r7)	;0x0000(r7)
    d27a:	06 47       	mov	r7,	r6	
    d27c:	36 53       	add	#-1,	r6	;r3 As==11
    d27e:	11 12 3a 00 	push	58(r1)		;0x003a(r1)
    d282:	11 12 3a 00 	push	58(r1)		;0x003a(r1)
    d286:	11 12 3a 00 	push	58(r1)		;0x003a(r1)
    d28a:	11 12 3a 00 	push	58(r1)		;0x003a(r1)
    d28e:	0c 49       	mov	r9,	r12	
    d290:	1d 41 44 00 	mov	68(r1),	r13	;0x0044(r1)
    d294:	0e 48       	mov	r8,	r14	
    d296:	0f 44       	mov	r4,	r15	
    d298:	b0 12 80 d5 	call	#0xd580	
    d29c:	31 52       	add	#8,	r1	;r2 As==11
    d29e:	09 4c       	mov	r12,	r9	
    d2a0:	81 4d 3c 00 	mov	r13,	60(r1)	;0x003c(r1)
    d2a4:	08 4e       	mov	r14,	r8	
    d2a6:	04 4f       	mov	r15,	r4	
    d2a8:	37 53       	add	#-1,	r7	;r3 As==11
    d2aa:	0c 93       	tst	r12		
    d2ac:	b2 23       	jnz	$-154    	;abs 0xd212
    d2ae:	0d 93       	tst	r13		
    d2b0:	b0 23       	jnz	$-158    	;abs 0xd212
    d2b2:	0e 93       	tst	r14		
    d2b4:	ae 23       	jnz	$-162    	;abs 0xd212
    d2b6:	0f 93       	tst	r15		
    d2b8:	ac 23       	jnz	$-166    	;abs 0xd212
    d2ba:	81 43 1e 00 	mov	#0,	30(r1)	;r3 As==00, 0x001e(r1)
    d2be:	81 43 20 00 	mov	#0,	32(r1)	;r3 As==00, 0x0020(r1)
    d2c2:	81 43 22 00 	mov	#0,	34(r1)	;r3 As==00, 0x0022(r1)
    d2c6:	81 43 24 00 	mov	#0,	36(r1)	;r3 As==00, 0x0024(r1)
    d2ca:	6c 3c       	jmp	$+218    	;abs 0xd3a4
    d2cc:	58 b3       	bit.b	#1,	r8	;r3 As==01
    d2ce:	3e 24       	jz	$+126    	;abs 0xd34c
    d2d0:	14 41 1e 00 	mov	30(r1),	r4	;0x001e(r1)
    d2d4:	17 41 20 00 	mov	32(r1),	r7	;0x0020(r1)
    d2d8:	08 41       	mov	r1,	r8	
    d2da:	38 50 1a 00 	add	#26,	r8	;#0x001a
    d2de:	19 41 28 00 	mov	40(r1),	r9	;0x0028(r1)
    d2e2:	89 10       	swpb	r9		
    d2e4:	89 11       	sxt	r9		
    d2e6:	89 10       	swpb	r9		
    d2e8:	89 11       	sxt	r9		
    d2ea:	1c 41 28 00 	mov	40(r1),	r12	;0x0028(r1)
    d2ee:	0d 49       	mov	r9,	r13	
    d2f0:	0e 44       	mov	r4,	r14	
    d2f2:	0f 47       	mov	r7,	r15	
    d2f4:	b0 12 18 d5 	call	#0xd518	
    d2f8:	0b 4e       	mov	r14,	r11	
    d2fa:	3e 90 0a 00 	cmp	#10,	r14	;#0x000a
    d2fe:	05 34       	jge	$+12     	;abs 0xd30a
    d300:	7b 50 30 00 	add.b	#48,	r11	;#0x0030
    d304:	c8 4b 00 00 	mov.b	r11,	0(r8)	;0x0000(r8)
    d308:	0c 3c       	jmp	$+26     	;abs 0xd322
    d30a:	4b 4e       	mov.b	r14,	r11	
    d30c:	d1 b3 01 00 	bit.b	#1,	1(r1)	;r3 As==01, 0x0001(r1)
    d310:	03 24       	jz	$+8      	;abs 0xd318
    d312:	7a 40 37 00 	mov.b	#55,	r10	;#0x0037
    d316:	02 3c       	jmp	$+6      	;abs 0xd31c
    d318:	7a 40 57 00 	mov.b	#87,	r10	;#0x0057
    d31c:	4a 5b       	add.b	r11,	r10	
    d31e:	c8 4a 00 00 	mov.b	r10,	0(r8)	;0x0000(r8)
    d322:	06 48       	mov	r8,	r6	
    d324:	36 53       	add	#-1,	r6	;r3 As==11
    d326:	1c 41 28 00 	mov	40(r1),	r12	;0x0028(r1)
    d32a:	0d 49       	mov	r9,	r13	
    d32c:	0e 44       	mov	r4,	r14	
    d32e:	0f 47       	mov	r7,	r15	
    d330:	b0 12 e2 d4 	call	#0xd4e2	
    d334:	04 4e       	mov	r14,	r4	
    d336:	07 4f       	mov	r15,	r7	
    d338:	38 53       	add	#-1,	r8	;r3 As==11
    d33a:	0e 93       	tst	r14		
    d33c:	d0 23       	jnz	$-94     	;abs 0xd2de
    d33e:	0f 93       	tst	r15		
    d340:	ce 23       	jnz	$-98     	;abs 0xd2de
    d342:	81 43 1e 00 	mov	#0,	30(r1)	;r3 As==00, 0x001e(r1)
    d346:	81 43 20 00 	mov	#0,	32(r1)	;r3 As==00, 0x0020(r1)
    d34a:	2c 3c       	jmp	$+90     	;abs 0xd3a4
    d34c:	17 41 1e 00 	mov	30(r1),	r7	;0x001e(r1)
    d350:	08 41       	mov	r1,	r8	
    d352:	38 50 1a 00 	add	#26,	r8	;#0x001a
    d356:	1e 41 28 00 	mov	40(r1),	r14	;0x0028(r1)
    d35a:	0f 47       	mov	r7,	r15	
    d35c:	b0 12 da d4 	call	#0xd4da	
    d360:	0d 4f       	mov	r15,	r13	
    d362:	3f 90 0a 00 	cmp	#10,	r15	;#0x000a
    d366:	05 34       	jge	$+12     	;abs 0xd372
    d368:	7d 50 30 00 	add.b	#48,	r13	;#0x0030
    d36c:	c8 4d 00 00 	mov.b	r13,	0(r8)	;0x0000(r8)
    d370:	0c 3c       	jmp	$+26     	;abs 0xd38a
    d372:	4d 4f       	mov.b	r15,	r13	
    d374:	d1 b3 01 00 	bit.b	#1,	1(r1)	;r3 As==01, 0x0001(r1)
    d378:	03 24       	jz	$+8      	;abs 0xd380
    d37a:	7c 40 37 00 	mov.b	#55,	r12	;#0x0037
    d37e:	02 3c       	jmp	$+6      	;abs 0xd384
    d380:	7c 40 57 00 	mov.b	#87,	r12	;#0x0057
    d384:	4c 5d       	add.b	r13,	r12	
    d386:	c8 4c 00 00 	mov.b	r12,	0(r8)	;0x0000(r8)
    d38a:	06 48       	mov	r8,	r6	
    d38c:	36 53       	add	#-1,	r6	;r3 As==11
    d38e:	1e 41 28 00 	mov	40(r1),	r14	;0x0028(r1)
    d392:	0f 47       	mov	r7,	r15	
    d394:	b0 12 c0 d4 	call	#0xd4c0	
    d398:	07 4f       	mov	r15,	r7	
    d39a:	38 53       	add	#-1,	r8	;r3 As==11
    d39c:	0f 93       	tst	r15		
    d39e:	db 23       	jnz	$-72     	;abs 0xd356
    d3a0:	81 43 1e 00 	mov	#0,	30(r1)	;r3 As==00, 0x001e(r1)
    d3a4:	b1 90 0a 00 	cmp	#10,	40(r1)	;#0x000a, 0x0028(r1)
    d3a8:	28 00 
    d3aa:	02 24       	jz	$+6      	;abs 0xd3b0
    d3ac:	c1 43 02 00 	mov.b	#0,	2(r1)	;r3 As==00, 0x0002(r1)
    d3b0:	c1 93 2e 00 	tst.b	46(r1)		;0x002e(r1)
    d3b4:	2a 24       	jz	$+86     	;abs 0xd40a
    d3b6:	0f 41       	mov	r1,	r15	
    d3b8:	3f 50 1c 00 	add	#28,	r15	;#0x001c
    d3bc:	81 4f 42 00 	mov	r15,	66(r1)	;0x0042(r1)
    d3c0:	1a 41 1c 00 	mov	28(r1),	r10	;0x001c(r1)
    d3c4:	8a 10       	swpb	r10		
    d3c6:	8a 11       	sxt	r10		
    d3c8:	8a 10       	swpb	r10		
    d3ca:	8a 11       	sxt	r10		
    d3cc:	81 4a 44 00 	mov	r10,	68(r1)	;0x0044(r1)
    d3d0:	81 46 46 00 	mov	r6,	70(r1)	;0x0046(r1)
    d3d4:	0a 46       	mov	r6,	r10	
    d3d6:	8a 10       	swpb	r10		
    d3d8:	8a 11       	sxt	r10		
    d3da:	8a 10       	swpb	r10		
    d3dc:	8a 11       	sxt	r10		
    d3de:	81 4a 48 00 	mov	r10,	72(r1)	;0x0048(r1)
    d3e2:	1c 41 42 00 	mov	66(r1),	r12	;0x0042(r1)
    d3e6:	1d 41 44 00 	mov	68(r1),	r13	;0x0044(r1)
    d3ea:	1c 81 46 00 	sub	70(r1),	r12	;0x0046(r1)
    d3ee:	1d 71 48 00 	subc	72(r1),	r13	;0x0048(r1)
    d3f2:	2c 83       	decd	r12		
    d3f4:	1c 91 26 00 	cmp	38(r1),	r12	;0x0026(r1)
    d3f8:	0e 2c       	jc	$+30     	;abs 0xd416
    d3fa:	e1 d3 01 00 	bis.b	#2,	1(r1)	;r3 As==10, 0x0001(r1)
    d3fe:	5e 41 26 00 	mov.b	38(r1),	r14	;0x0026(r1)
    d402:	4e 8c       	sub.b	r12,	r14	
    d404:	c1 4e 03 00 	mov.b	r14,	3(r1)	;0x0003(r1)
    d408:	06 3c       	jmp	$+14     	;abs 0xd416
    d40a:	c1 93 2a 00 	tst.b	42(r1)		;0x002a(r1)
    d40e:	03 24       	jz	$+8      	;abs 0xd416
    d410:	91 41 26 00 	mov	38(r1),	48(r1)	;0x0026(r1), 0x0030(r1)
    d414:	30 00 
    d416:	11 12 04 00 	push	4(r1)		;0x0004(r1)
    d41a:	11 12 04 00 	push	4(r1)		;0x0004(r1)
    d41e:	1d 41 34 00 	mov	52(r1),	r13	;0x0034(r1)
    d422:	0e 46       	mov	r6,	r14	
    d424:	1e 53       	inc	r14		
    d426:	1f 41 3e 00 	mov	62(r1),	r15	;0x003e(r1)
    d42a:	b0 12 62 cc 	call	#0xcc62	
    d42e:	21 52       	add	#4,	r1	;r2 As==10
    d430:	81 5f 2c 00 	add	r15,	44(r1)	;0x002c(r1)
    d434:	0d 3c       	jmp	$+28     	;abs 0xd450
    d436:	7f 49       	mov.b	@r9+,	r15	
    d438:	8f 11       	sxt	r15		
    d43a:	91 12 3c 00 	call	60(r1)		;0x003c(r1)
    d43e:	0e 49       	mov	r9,	r14	
    d440:	0e 58       	add	r8,	r14	
    d442:	19 91 40 00 	cmp	64(r1),	r9	;0x0040(r1)
    d446:	f7 2b       	jnc	$-16     	;abs 0xd436
    d448:	81 49 3e 00 	mov	r9,	62(r1)	;0x003e(r1)
    d44c:	81 4e 2c 00 	mov	r14,	44(r1)	;0x002c(r1)
    d450:	07 43       	clr	r7		
    d452:	0e 3c       	jmp	$+30     	;abs 0xd470
    d454:	91 41 26 00 	mov	38(r1),	48(r1)	;0x0026(r1), 0x0030(r1)
    d458:	30 00 
    d45a:	d1 43 2e 00 	mov.b	#1,	46(r1)	;r3 As==01, 0x002e(r1)
    d45e:	c1 43 2a 00 	mov.b	#0,	42(r1)	;r3 As==00, 0x002a(r1)
    d462:	03 3c       	jmp	$+8      	;abs 0xd46a
    d464:	05 4e       	mov	r14,	r5	
    d466:	d1 43 2a 00 	mov.b	#1,	42(r1)	;r3 As==01, 0x002a(r1)
    d46a:	81 43 26 00 	mov	#0,	38(r1)	;r3 As==00, 0x0026(r1)
    d46e:	17 43       	mov	#1,	r7	;r3 As==01
    d470:	16 41 40 00 	mov	64(r1),	r6	;0x0040(r1)
    d474:	6e 46       	mov.b	@r6,	r14	
    d476:	4e 93       	tst.b	r14		
    d478:	02 24       	jz	$+6      	;abs 0xd47e
    d47a:	30 40 46 ce 	br	#0xce46	
    d47e:	1f 41 2c 00 	mov	44(r1),	r15	;0x002c(r1)
    d482:	31 50 4a 00 	add	#74,	r1	;#0x004a
    d486:	34 41       	pop	r4		
    d488:	35 41       	pop	r5		
    d48a:	36 41       	pop	r6		
    d48c:	37 41       	pop	r7		
    d48e:	38 41       	pop	r8		
    d490:	39 41       	pop	r9		
    d492:	3a 41       	pop	r10		
    d494:	3b 41       	pop	r11		
    d496:	30 41       	ret			

0000d498 <strncmp>:
    d498:	0b 12       	push	r11		
    d49a:	0d 93       	tst	r13		
    d49c:	0e 24       	jz	$+30     	;abs 0xd4ba
    d49e:	6c 4f       	mov.b	@r15,	r12	
    d4a0:	7b 4e       	mov.b	@r14+,	r11	
    d4a2:	4c 9b       	cmp.b	r11,	r12	
    d4a4:	05 24       	jz	$+12     	;abs 0xd4b0
    d4a6:	4f 4c       	mov.b	r12,	r15	
    d4a8:	5e 4e ff ff 	mov.b	-1(r14),r14	;0xffff(r14)
    d4ac:	0f 8e       	sub	r14,	r15	
    d4ae:	06 3c       	jmp	$+14     	;abs 0xd4bc
    d4b0:	1f 53       	inc	r15		
    d4b2:	4c 93       	tst.b	r12		
    d4b4:	02 24       	jz	$+6      	;abs 0xd4ba
    d4b6:	3d 53       	add	#-1,	r13	;r3 As==11
    d4b8:	f0 3f       	jmp	$-30     	;abs 0xd49a
    d4ba:	0f 43       	clr	r15		
    d4bc:	3b 41       	pop	r11		
    d4be:	30 41       	ret			

0000d4c0 <__udivhi3>:
    d4c0:	7c 40 10 00 	mov.b	#16,	r12	;#0x0010
    d4c4:	0d 4e       	mov	r14,	r13	
    d4c6:	0e 43       	clr	r14		
    d4c8:	0f 5f       	rla	r15		
    d4ca:	0e 6e       	rlc	r14		
    d4cc:	0e 9d       	cmp	r13,	r14	
    d4ce:	02 28       	jnc	$+6      	;abs 0xd4d4
    d4d0:	0e 8d       	sub	r13,	r14	
    d4d2:	1f d3       	bis	#1,	r15	;r3 As==01
    d4d4:	1c 83       	dec	r12		
    d4d6:	f8 23       	jnz	$-14     	;abs 0xd4c8
    d4d8:	30 41       	ret			

0000d4da <__umodhi3>:
    d4da:	b0 12 c0 d4 	call	#0xd4c0	
    d4de:	0f 4e       	mov	r14,	r15	
    d4e0:	30 41       	ret			

0000d4e2 <__udivsi3>:
    d4e2:	0b 12       	push	r11		
    d4e4:	0a 12       	push	r10		
    d4e6:	09 12       	push	r9		
    d4e8:	79 40 20 00 	mov.b	#32,	r9	;#0x0020
    d4ec:	0a 4c       	mov	r12,	r10	
    d4ee:	0b 4d       	mov	r13,	r11	
    d4f0:	0c 43       	clr	r12		
    d4f2:	0d 43       	clr	r13		
    d4f4:	0e 5e       	rla	r14		
    d4f6:	0f 6f       	rlc	r15		
    d4f8:	0c 6c       	rlc	r12		
    d4fa:	0d 6d       	rlc	r13		
    d4fc:	0d 9b       	cmp	r11,	r13	
    d4fe:	06 28       	jnc	$+14     	;abs 0xd50c
    d500:	02 20       	jnz	$+6      	;abs 0xd506
    d502:	0c 9a       	cmp	r10,	r12	
    d504:	03 28       	jnc	$+8      	;abs 0xd50c
    d506:	0c 8a       	sub	r10,	r12	
    d508:	0d 7b       	subc	r11,	r13	
    d50a:	1e d3       	bis	#1,	r14	;r3 As==01
    d50c:	19 83       	dec	r9		
    d50e:	f2 23       	jnz	$-26     	;abs 0xd4f4
    d510:	39 41       	pop	r9		
    d512:	3a 41       	pop	r10		
    d514:	3b 41       	pop	r11		
    d516:	30 41       	ret			

0000d518 <__umodsi3>:
    d518:	b0 12 e2 d4 	call	#0xd4e2	
    d51c:	0e 4c       	mov	r12,	r14	
    d51e:	0f 4d       	mov	r13,	r15	
    d520:	30 41       	ret			

0000d522 <__xabi_udivmod64>:
    d522:	07 12       	push	r7		
    d524:	06 12       	push	r6		
    d526:	05 12       	push	r5		
    d528:	04 12       	push	r4		
    d52a:	30 12 40 00 	push	#64		;#0x0040
    d52e:	04 48       	mov	r8,	r4	
    d530:	05 49       	mov	r9,	r5	
    d532:	06 4a       	mov	r10,	r6	
    d534:	07 4b       	mov	r11,	r7	
    d536:	08 43       	clr	r8		
    d538:	09 43       	clr	r9		
    d53a:	0a 43       	clr	r10		
    d53c:	0b 43       	clr	r11		
    d53e:	0c 5c       	rla	r12		
    d540:	0d 6d       	rlc	r13		
    d542:	0e 6e       	rlc	r14		
    d544:	0f 6f       	rlc	r15		
    d546:	08 68       	rlc	r8		
    d548:	09 69       	rlc	r9		
    d54a:	0a 6a       	rlc	r10		
    d54c:	0b 6b       	rlc	r11		
    d54e:	0b 97       	cmp	r7,	r11	
    d550:	0e 28       	jnc	$+30     	;abs 0xd56e
    d552:	08 20       	jnz	$+18     	;abs 0xd564
    d554:	0a 96       	cmp	r6,	r10	
    d556:	0b 28       	jnc	$+24     	;abs 0xd56e
    d558:	05 20       	jnz	$+12     	;abs 0xd564
    d55a:	09 95       	cmp	r5,	r9	
    d55c:	08 28       	jnc	$+18     	;abs 0xd56e
    d55e:	02 20       	jnz	$+6      	;abs 0xd564
    d560:	08 94       	cmp	r4,	r8	
    d562:	05 28       	jnc	$+12     	;abs 0xd56e
    d564:	08 84       	sub	r4,	r8	
    d566:	09 75       	subc	r5,	r9	
    d568:	0a 76       	subc	r6,	r10	
    d56a:	0b 77       	subc	r7,	r11	
    d56c:	1c d3       	bis	#1,	r12	;r3 As==01
    d56e:	91 83 00 00 	dec	0(r1)		;0x0000(r1)
    d572:	e5 23       	jnz	$-52     	;abs 0xd53e
    d574:	21 53       	incd	r1		
    d576:	34 41       	pop	r4		
    d578:	35 41       	pop	r5		
    d57a:	36 41       	pop	r6		
    d57c:	37 41       	pop	r7		
    d57e:	30 41       	ret			

0000d580 <__udivdi3>:
    d580:	0b 12       	push	r11		
    d582:	0a 12       	push	r10		
    d584:	09 12       	push	r9		
    d586:	08 12       	push	r8		
    d588:	18 41 0a 00 	mov	10(r1),	r8	;0x000a(r1)
    d58c:	19 41 0c 00 	mov	12(r1),	r9	;0x000c(r1)
    d590:	1a 41 0e 00 	mov	14(r1),	r10	;0x000e(r1)
    d594:	1b 41 10 00 	mov	16(r1),	r11	;0x0010(r1)
    d598:	b0 12 22 d5 	call	#0xd522	
    d59c:	38 41       	pop	r8		
    d59e:	39 41       	pop	r9		
    d5a0:	3a 41       	pop	r10		
    d5a2:	3b 41       	pop	r11		
    d5a4:	30 41       	ret			

0000d5a6 <__umoddi3>:
    d5a6:	0b 12       	push	r11		
    d5a8:	0a 12       	push	r10		
    d5aa:	09 12       	push	r9		
    d5ac:	08 12       	push	r8		
    d5ae:	18 41 0a 00 	mov	10(r1),	r8	;0x000a(r1)
    d5b2:	19 41 0c 00 	mov	12(r1),	r9	;0x000c(r1)
    d5b6:	1a 41 0e 00 	mov	14(r1),	r10	;0x000e(r1)
    d5ba:	1b 41 10 00 	mov	16(r1),	r11	;0x0010(r1)
    d5be:	b0 12 22 d5 	call	#0xd522	
    d5c2:	0c 48       	mov	r8,	r12	
    d5c4:	0d 49       	mov	r9,	r13	
    d5c6:	0e 4a       	mov	r10,	r14	
    d5c8:	0f 4b       	mov	r11,	r15	
    d5ca:	38 41       	pop	r8		
    d5cc:	39 41       	pop	r9		
    d5ce:	3a 41       	pop	r10		
    d5d0:	3b 41       	pop	r11		
    d5d2:	30 41       	ret			

0000d5d4 <__udivmoddi4>:
    d5d4:	0b 12       	push	r11		
    d5d6:	0a 12       	push	r10		
    d5d8:	09 12       	push	r9		
    d5da:	08 12       	push	r8		
    d5dc:	07 12       	push	r7		
    d5de:	18 41 0c 00 	mov	12(r1),	r8	;0x000c(r1)
    d5e2:	19 41 0e 00 	mov	14(r1),	r9	;0x000e(r1)
    d5e6:	1a 41 10 00 	mov	16(r1),	r10	;0x0010(r1)
    d5ea:	1b 41 12 00 	mov	18(r1),	r11	;0x0012(r1)
    d5ee:	b0 12 22 d5 	call	#0xd522	
    d5f2:	17 41 14 00 	mov	20(r1),	r7	;0x0014(r1)
    d5f6:	87 48 00 00 	mov	r8,	0(r7)	;0x0000(r7)
    d5fa:	87 49 02 00 	mov	r9,	2(r7)	;0x0002(r7)
    d5fe:	87 4a 04 00 	mov	r10,	4(r7)	;0x0004(r7)
    d602:	87 4b 06 00 	mov	r11,	6(r7)	;0x0006(r7)
    d606:	37 41       	pop	r7		
    d608:	38 41       	pop	r8		
    d60a:	39 41       	pop	r9		
    d60c:	3a 41       	pop	r10		
    d60e:	3b 41       	pop	r11		
    d610:	30 41       	ret			

0000d612 <_unexpected_>:
    d612:	00 13       	reti			

Disassembly of section .vectors:

0000c000 <__ivtbl_16>:
    c000:	8c c0 8c c0 8c c0 8c c0 8c c0 88 c7 8c c0 9c c2     ................
    c010:	8c c0 a2 c9 8c c0 8c c0 8c c0 8c c0 8c c0 20 c0     .............. .
